; ModuleID = 'worduino_avr.124c28c8-cgu.0'
source_filename = "worduino_avr.124c28c8-cgu.0"
target datalayout = "e-P1-p:16:8-i8:8-i16:8-i32:8-i64:8-f32:8-f64:8-n8-a:8"
target triple = "avr-unknown-unknown"

%0 = type { i32, { ptr, ptr }, i32, i8, { i8, i16 }, { i8, i16 } }
%"worduino_engine::engine::Entity" = type { { i8, i8 }, i8 }
%"core::option::Option<((u8, u8), worduino_engine::draw::Orientation)>" = type { [2 x i8], i8 }
%"core::option::Option<worduino_engine::engine::BasicMonster>" = type { [10 x i8], i8, [2 x i8] }
%"worduino_engine::engine::Player" = type { %"worduino_engine::engine::PlayerState", i16, i8, %"core::option::Option<worduino_engine::engine::Entity>", %"worduino_engine::engine::Entity" }
%"worduino_engine::engine::PlayerState" = type { i8, [3 x i8] }
%"core::option::Option<worduino_engine::engine::Entity>" = type { [2 x i8], i8 }
%"worduino_engine::engine::Engine<ArduboyPeripherals>" = type { %ArduboyPeripherals, i16, %"worduino_engine::peripherals::Buttons", i8, %"worduino_engine::engine::State" }
%ArduboyPeripherals = type { %"ssd1306::FrameBuffer" }
%"ssd1306::FrameBuffer" = type { [8 x [128 x i8]] }
%"worduino_engine::peripherals::Buttons" = type { i8, i8, i8, i8, i8, i8 }
%"worduino_engine::engine::State" = type { [120 x i8], i8 }
%"worduino_engine::engine::PlayerState::Camping" = type { [1 x i8], i8 }
%"worduino_engine::engine::PlayerState::Respawning" = type { [1 x i8], i8, { i8, i8 } }
%"worduino_engine::engine::BasicMonster" = type { ptr, { i8, i8 }, %"core::option::Option<worduino_engine::engine::Entity>", %"worduino_engine::engine::Entity", %"core::option::Option<worduino_engine::engine::Frame<b\22\\n\\n\\n\22>>" }
%"core::option::Option<worduino_engine::engine::Frame<b\22\\n\\n\\n\22>>" = type { i8, [2 x i8] }

@alloc211 = private unnamed_addr constant <{ [2 x i8] }> <{ [2 x i8] c"\8C(" }>, align 2
@alloc213 = private unnamed_addr constant <{ [3 x i8] }> <{ [3 x i8] c"\14\14\14" }>, align 4
@alloc215 = private unnamed_addr constant <{ [4 x i8] }> <{ [4 x i8] c"\0A\0A\0A\1E" }>, align 4
@alloc217 = private unnamed_addr constant <{ [3 x i8] }> <{ [3 x i8] c"\05\05\05" }>, align 4
@alloc219 = private unnamed_addr constant <{ [3 x i8] }> <{ [3 x i8] c"\0A\0A\0A" }>, align 4
@str.0 = internal constant [57 x i8] c"attempt to calculate the remainder with a divisor of zero"
@_ZN12worduino_avr7ssd130611INIT_SCREEN5VALUE17h7ee0c94dce19b4bcE = internal constant <{ [13 x i8] }> <{ [13 x i8] c"\D5\F0\8D\14\A1\C8\81\CF\D9\F1\AF \00" }>, section ".progmem.data", align 1
@anon.835237b4527979f782f8d807128e61aa.5 = private unnamed_addr constant <{ [200 x i8] }> <{ [200 x i8] c"00010203040506070809101112131415161718192021222324252627282930313233343536373839404142434445464748495051525354555657585960616263646566676869707172737475767778798081828384858687888990919293949596979899" }>, align 1
@anon.323483e2550bd36fcccf07f529e1f662.0 = private unnamed_addr constant <{}> zeroinitializer, align 1
@_ZN15worduino_engine6assets14MONSTER_BULLET6FRAMES5VALUE17h2cc94a6d95d47ee9E = internal constant <{ [16 x i8] }> <{ [16 x i8] c"\08\04\04\08\08\10\10\08\08\10\10\08\08\04\04\08" }>, section ".progmem.data", align 1
@_ZN15worduino_engine6assets11PLAYER_IDLE6FRAMES5VALUE17he7491c159b41f446E = internal constant <{ [16 x i8] }> <{ [16 x i8] c"\08\98\D0~\BE\F8\1C\00\00\88\DC~\BE\F8\1C\00" }>, section ".progmem.data", align 1
@_ZN15worduino_engine6assets8MONSTER16FRAMES5VALUE17h00782a2a99a046c0E = internal constant <{ [24 x i8] }> <{ [24 x i8] c"`\AC<~p \B8d\C0&\1E?8\10,\C2\80f\1E?8\10l\82" }>, section ".progmem.data", align 1
@_ZN15worduino_engine6assets11MONSTER_DIE6FRAMES17hb787fa90c2940e02E = internal unnamed_addr constant <{ ptr }> <{ ptr @_ZN15worduino_engine6assets11MONSTER_DIE6FRAMES5VALUE17h6ab77d61fa5821beE }>, align 1
@_ZN15worduino_engine6assets11MONSTER_DIE6FRAMES5VALUE17h6ab77d61fa5821beE = internal constant <{ [24 x i8] }> <{ [24 x i8] c"J\A9\1C6f\18\89J@\14a\82\00$\12D\00\00\00\00\00\00\00\00" }>, section ".progmem.data", align 1
@_ZN15worduino_engine6assets8MONSTER26FRAMES5VALUE17h7f709773125f6cafE = internal constant <{ [24 x i8] }> <{ [24 x i8] c"\00\83\CB=\BF\F0\0C\02\00CK=\BF\F0\0C\02\00\03\0B\BD\FF0\CC\02" }>, section ".progmem.data", align 1
@anon.f3fe300a4166905cb16709370080cabc.0 = private unnamed_addr constant <{ [28 x i8] }> <{ [28 x i8] c"Given index is out of bounds" }>, align 1
@_ZN15worduino_engine6assets12PLAYER_SHOOT5VALUE17hb1f16604782cc96bE = internal constant <{ [8 x i8] }> <{ [8 x i8] c"\00\9C\D0~\BE\F8\1C\00" }>, section ".progmem.data", align 1
@_ZN15worduino_engine6assets11PLAYER_LIFE5VALUE17h0b99e0c8b05c741dE = internal constant <{ [6 x i8] }> <{ [6 x i8] c"\08>\1E<\0E\00" }>, section ".progmem.data", align 1
@_ZN15worduino_engine6assets13PLAYER_BULLET5VALUE17he293f20255c3c9cbE = internal constant <{ [8 x i8] }> <{ [8 x i8] c"\08\08\08\08\00\00\00\00" }>, section ".progmem.data", align 1
@_ZN15worduino_engine6assets6DIGITS5VALUE17head0b016aa7766a5E = internal constant <{ [40 x i8] }> <{ [40 x i8] c"\0F\09\0F\00\02\01\0F\00\09\0D\0B\00\09\0B\0F\00\07\04\0F\00\07\0D\0D\00\0F\0A\0E\00\01\01\0F\00\07\0D\0B\0E\07\05\0F\00" }>, section ".progmem.data", align 1
@_ZN15worduino_engine6assets8LEVEL1_V5VALUE17heea01cf95c80e8a9E = internal constant <{ [12 x i8] }> <{ [12 x i8] c"\84\00\01\022\01\86\011\02H\00" }>, section ".progmem.data", align 1
@_ZN15worduino_engine6assets8LEVEL1_H5VALUE17hbd89651c2830a89cE = internal constant <{ [11 x i8] }> <{ [11 x i8] c"\00\09\10\06\0B\00\0B\06\10\09\00" }>, section ".progmem.data", align 1
@_ZN15worduino_engine6assets6LEVELS5VALUE17h996fb4c62f7cdefaE = internal constant <{ ptr, ptr }> <{ ptr @_ZN15worduino_engine6assets8LEVEL1_V5VALUE17heea01cf95c80e8a9E, ptr @_ZN15worduino_engine6assets8LEVEL1_H5VALUE17hbd89651c2830a89cE }>, section ".progmem.data", align 1
@_ZN15worduino_engine6assets8MONSTER36FRAMES5VALUE17hecd487d1de70fbbdE = internal constant <{ [24 x i8] }> <{ [24 x i8] c",\AA~\B8p\B2r\0C,*\FE8\F02\F2\0C,*~\B8p\B2r\8C" }>, section ".progmem.data", align 1
@_ZN15worduino_engine6assets10PLAYER_DIE6FRAMES5VALUE17ha200bb11413b94bfE = internal constant <{ [32 x i8] }> <{ [32 x i8] c"\08\98\D0~\BE\F8\1C\00\08\90\80V\AA\D0\04\00\00\90\00D\82P\04\00\00\00\00\00\00\00\00\00" }>, section ".progmem.data", align 1
@_ZN15worduino_engine6assets11PLAYER_WALK6FRAMES5VALUE17h61cfa09f37294855E = internal constant <{ [24 x i8] }> <{ [24 x i8] c"\08\18P~\BE\F8\1C\00\08\98\D0~>x\1C\00\08\18\10\BE\FE8\1C\00" }>, section ".progmem.data", align 1

; worduino_engine::draw::draw_sprite
; Function Attrs: uwtable
define internal fastcc void @_ZN15worduino_engine4draw11draw_sprite17hc7657142962e61a4E(ptr noalias nocapture noundef align 1 dereferenceable(1024) %p, ptr %0, i16 %1, i8 %pos.0, i8 %pos.1, i8 noundef %2) unnamed_addr addrspace(1) #0 personality ptr addrspace(1) @rust_eh_personality {
start:
  %buffer.i.i.i139 = alloca i8, align 1
  %buffer.i.i.i111 = alloca i8, align 1
  %buffer.i.i.i83 = alloca i8, align 1
  %buffer.i.i.i = alloca i8, align 1
  %pos.1.fr = freeze i8 %pos.1
  %start_stripe46 = lshr i8 %pos.1.fr, 3
  switch i8 %2, label %bb2 [
    i8 0, label %"_ZN11avr_progmem7wrapper26ProgMem$LT$$u5b$T$u5d$$GT$7load_at17hf0b857a44810d128E.exit143.lr.ph"
    i8 1, label %bb22.lr.ph
    i8 2, label %"_ZN11avr_progmem7wrapper26ProgMem$LT$$u5b$T$u5d$$GT$7load_at17hf0b857a44810d128E.exit87.preheader"
    i8 3, label %bb50.preheader
  ]

bb50.preheader:                                   ; preds = %start
  %_8.i.i.i.i.us = zext i8 %pos.0 to i16
  %_11.i.i.i.i.us = icmp sgt i8 %pos.0, -1
  %_167.us.1 = add i8 %pos.0, 1
  %_8.i.i.i.i.us.1 = zext i8 %_167.us.1 to i16
  %_11.i.i.i.i.us.1 = icmp sgt i8 %_167.us.1, -1
  %_167.us.2 = add i8 %pos.0, 2
  %_8.i.i.i.i.us.2 = zext i8 %_167.us.2 to i16
  %_11.i.i.i.i.us.2 = icmp sgt i8 %_167.us.2, -1
  %_167.us.3 = add i8 %pos.0, 3
  %_8.i.i.i.i.us.3 = zext i8 %_167.us.3 to i16
  %_11.i.i.i.i.us.3 = icmp sgt i8 %_167.us.3, -1
  %_167.us.4 = add i8 %pos.0, 4
  %_8.i.i.i.i.us.4 = zext i8 %_167.us.4 to i16
  %_11.i.i.i.i.us.4 = icmp sgt i8 %_167.us.4, -1
  %_167.us.5 = add i8 %pos.0, 5
  %_8.i.i.i.i.us.5 = zext i8 %_167.us.5 to i16
  %_11.i.i.i.i.us.5 = icmp sgt i8 %_167.us.5, -1
  %_167.us.6 = add i8 %pos.0, 6
  %_8.i.i.i.i.us.6 = zext i8 %_167.us.6 to i16
  %_11.i.i.i.i.us.6 = icmp sgt i8 %_167.us.6, -1
  %_167.us.7 = add i8 %pos.0, 7
  %_8.i.i.i.i.us.7 = zext i8 %_167.us.7 to i16
  %_11.i.i.i.i.us.7 = icmp sgt i8 %_167.us.7, -1
  br label %"_ZN11avr_progmem7wrapper26ProgMem$LT$$u5b$T$u5d$$GT$7load_at17hf0b857a44810d128E.exit"

"_ZN11avr_progmem7wrapper26ProgMem$LT$$u5b$T$u5d$$GT$7load_at17hf0b857a44810d128E.exit87.preheader": ; preds = %start
  %_8.i.i.i.i97.us = zext i8 %pos.0 to i16
  %_11.i.i.i.i98.us = icmp sgt i8 %pos.0, -1
  %_129.us.1 = add i8 %pos.0, 1
  %_8.i.i.i.i97.us.1 = zext i8 %_129.us.1 to i16
  %_11.i.i.i.i98.us.1 = icmp sgt i8 %_129.us.1, -1
  %_129.us.2 = add i8 %pos.0, 2
  %_8.i.i.i.i97.us.2 = zext i8 %_129.us.2 to i16
  %_11.i.i.i.i98.us.2 = icmp sgt i8 %_129.us.2, -1
  %_129.us.3 = add i8 %pos.0, 3
  %_8.i.i.i.i97.us.3 = zext i8 %_129.us.3 to i16
  %_11.i.i.i.i98.us.3 = icmp sgt i8 %_129.us.3, -1
  %_129.us.4 = add i8 %pos.0, 4
  %_8.i.i.i.i97.us.4 = zext i8 %_129.us.4 to i16
  %_11.i.i.i.i98.us.4 = icmp sgt i8 %_129.us.4, -1
  %_129.us.5 = add i8 %pos.0, 5
  %_8.i.i.i.i97.us.5 = zext i8 %_129.us.5 to i16
  %_11.i.i.i.i98.us.5 = icmp sgt i8 %_129.us.5, -1
  %_129.us.6 = add i8 %pos.0, 6
  %_8.i.i.i.i97.us.6 = zext i8 %_129.us.6 to i16
  %_11.i.i.i.i98.us.6 = icmp sgt i8 %_129.us.6, -1
  %_129.us.7 = add i8 %pos.0, 7
  %_8.i.i.i.i97.us.7 = zext i8 %_129.us.7 to i16
  %_11.i.i.i.i98.us.7 = icmp sgt i8 %_129.us.7, -1
  br label %"_ZN11avr_progmem7wrapper26ProgMem$LT$$u5b$T$u5d$$GT$7load_at17hf0b857a44810d128E.exit87"

bb22.lr.ph:                                       ; preds = %start
  %_76 = and i8 %pos.1.fr, -8
  %_74 = icmp eq i8 %_76, %pos.1.fr
  %_4.i.i.i = zext i8 %start_stripe46 to i16
  %_7.i.i.i = icmp ult i8 %pos.1.fr, 64
  br i1 %_74, label %bb22.lr.ph.split.us, label %bb22.preheader

bb22.preheader:                                   ; preds = %bb22.lr.ph
  %offset.i.i130.us = and i8 %pos.1.fr, 7
  %mask.i.i131.us = shl nuw i8 1, %offset.i.i130.us
  %_98.us.1 = add i8 %pos.1.fr, 1
  %stripe1.i.i121.us.1 = lshr i8 %_98.us.1, 3
  %_4.i.i.i.i122.us.1 = zext i8 %stripe1.i.i121.us.1 to i16
  %_7.i.i.i.i123.us.1 = icmp ult i8 %_98.us.1, 64
  %offset.i.i130.us.1 = and i8 %_98.us.1, 7
  %mask.i.i131.us.1 = shl nuw i8 1, %offset.i.i130.us.1
  %_98.us.2 = add i8 %pos.1.fr, 2
  %stripe1.i.i121.us.2 = lshr i8 %_98.us.2, 3
  %_4.i.i.i.i122.us.2 = zext i8 %stripe1.i.i121.us.2 to i16
  %_7.i.i.i.i123.us.2 = icmp ult i8 %_98.us.2, 64
  %offset.i.i130.us.2 = and i8 %_98.us.2, 7
  %mask.i.i131.us.2 = shl nuw i8 1, %offset.i.i130.us.2
  %_98.us.3 = add i8 %pos.1.fr, 3
  %stripe1.i.i121.us.3 = lshr i8 %_98.us.3, 3
  %_4.i.i.i.i122.us.3 = zext i8 %stripe1.i.i121.us.3 to i16
  %_7.i.i.i.i123.us.3 = icmp ult i8 %_98.us.3, 64
  %offset.i.i130.us.3 = and i8 %_98.us.3, 7
  %mask.i.i131.us.3 = shl nuw i8 1, %offset.i.i130.us.3
  %_98.us.4 = add i8 %pos.1.fr, 4
  %stripe1.i.i121.us.4 = lshr i8 %_98.us.4, 3
  %_4.i.i.i.i122.us.4 = zext i8 %stripe1.i.i121.us.4 to i16
  %_7.i.i.i.i123.us.4 = icmp ult i8 %_98.us.4, 64
  %offset.i.i130.us.4 = and i8 %_98.us.4, 7
  %mask.i.i131.us.4 = shl nuw i8 1, %offset.i.i130.us.4
  %_98.us.5 = add i8 %pos.1.fr, 5
  %stripe1.i.i121.us.5 = lshr i8 %_98.us.5, 3
  %_4.i.i.i.i122.us.5 = zext i8 %stripe1.i.i121.us.5 to i16
  %_7.i.i.i.i123.us.5 = icmp ult i8 %_98.us.5, 64
  %offset.i.i130.us.5 = and i8 %_98.us.5, 7
  %mask.i.i131.us.5 = shl nuw i8 1, %offset.i.i130.us.5
  %_98.us.6 = add i8 %pos.1.fr, 6
  %stripe1.i.i121.us.6 = lshr i8 %_98.us.6, 3
  %_4.i.i.i.i122.us.6 = zext i8 %stripe1.i.i121.us.6 to i16
  %_7.i.i.i.i123.us.6 = icmp ult i8 %_98.us.6, 64
  %offset.i.i130.us.6 = and i8 %_98.us.6, 7
  %mask.i.i131.us.6 = shl nuw i8 1, %offset.i.i130.us.6
  %_98.us.7 = add i8 %pos.1.fr, 7
  %stripe1.i.i121.us.7 = lshr i8 %_98.us.7, 3
  %_4.i.i.i.i122.us.7 = zext i8 %stripe1.i.i121.us.7 to i16
  %_7.i.i.i.i123.us.7 = icmp ult i8 %_98.us.7, 64
  %offset.i.i130.us.7 = and i8 %_98.us.7, 7
  %mask.i.i131.us.7 = shl nuw i8 1, %offset.i.i130.us.7
  br label %"_ZN11avr_progmem7wrapper26ProgMem$LT$$u5b$T$u5d$$GT$7load_at17hf0b857a44810d128E.exit115"

bb22.lr.ph.split.us:                              ; preds = %bb22.lr.ph
  br i1 %_7.i.i.i, label %"_ZN11avr_progmem7wrapper26ProgMem$LT$$u5b$T$u5d$$GT$7load_at17hf0b857a44810d128E.exit115.us.us", label %"_ZN11avr_progmem7wrapper26ProgMem$LT$$u5b$T$u5d$$GT$7load_at17hf0b857a44810d128E.exit115.us", !prof !3

"_ZN11avr_progmem7wrapper26ProgMem$LT$$u5b$T$u5d$$GT$7load_at17hf0b857a44810d128E.exit115.us.us": ; preds = %bb22.lr.ph.split.us, %_ZN15worduino_engine11peripherals11Peripherals9or_stripe17h711d67c6485a1121E.exit.us.us
  %iter4.sroa.0.0228.us.us = phi i16 [ %6, %_ZN15worduino_engine11peripherals11Peripherals9or_stripe17h711d67c6485a1121E.exit.us.us ], [ 0, %bb22.lr.ph.split.us ]
  %3 = xor i16 %iter4.sroa.0.0228.us.us, -1
  %_69.us.us = add i16 %3, %1
  %dx21.us.us = trunc i16 %iter4.sroa.0.0228.us.us to i8
  %4 = getelementptr inbounds i8, ptr %0, i16 %_69.us.us
  call addrspace(1) void @llvm.lifetime.start.p0(i64 1, ptr nonnull %buffer.i.i.i111)
  %5 = call addrspace(0) { i8, i8, ptr, ptr } asm sideeffect alignstack "\0A\09\09\09\09\09\09// load value from program memory at indirect Z into temp\0A\09\09\09\09\09\09// register $$3 and post-increment Z by one\0A\09\09\09\09\09\09lpm ${1}, Z+\0A\0A\09\09\09\09\09\09// write register $$3 to data memory at indirect X\0A\09\09\09\09\09\09// and post-increment X by one\0A\09\09\09\09\09\09st X+, ${1}\0A\0A\09\09\09\09\09\09// Decrement the loop counter in register $$0 (size_bytes).\0A\09\09\09\09\09\09// If zero has been reached the equality flag is set.\0A\09\09\09\09\09\09subi ${0}, 1\0A\0A\09\09\09\09\09\09// Check whether the end has not been reached and if so jump back.\0A\09\09\09\09\09\09// The end is reached if $$0 (size_bytes) == 0, i.e. equality flag\0A\09\09\09\09\09\09// is set.\0A\09\09\09\09\09\09// Thus if equality flag is NOT set (brNE) jump back by 4\0A\09\09\09\09\09\09// instruction, that are all instructions in this assembly.\0A\09\09\09\09\09\09// Notice: 4 instructions = 8 Byte\0A\09\09\09\09\09\09brne -8\0A\09\09\09\09\09", "=&r,=&r,=&{r31r30},=&{r27r26},0,2,3,~{sreg},~{memory}"(i8 1, ptr %4, ptr nonnull %buffer.i.i.i111) #12, !srcloc !4
  %self.i.i.i114.us.us = load i8, ptr %buffer.i.i.i111, align 1
  call addrspace(1) void @llvm.lifetime.end.p0(i64 1, ptr nonnull %buffer.i.i.i111)
  %_80.us.us = add i8 %dx21.us.us, %pos.0
  %_8.i.i.i.us.us = zext i8 %_80.us.us to i16
  %_11.i.i.i.us.us = icmp sgt i8 %_80.us.us, -1
  br i1 %_11.i.i.i.us.us, label %_ZN15worduino_engine11peripherals11Peripherals9or_stripe17h711d67c6485a1121E.exit.us.us, label %panic1.i.i.i, !prof !3

_ZN15worduino_engine11peripherals11Peripherals9or_stripe17h711d67c6485a1121E.exit.us.us: ; preds = %"_ZN11avr_progmem7wrapper26ProgMem$LT$$u5b$T$u5d$$GT$7load_at17hf0b857a44810d128E.exit115.us.us"
  %6 = add nuw i16 %iter4.sroa.0.0228.us.us, 1
  %7 = getelementptr inbounds [8 x [128 x i8]], ptr %p, i16 0, i16 %_4.i.i.i, i16 %_8.i.i.i.us.us
  %8 = load i8, ptr %7, align 1, !alias.scope !5
  %_8.i.us.us = or i8 %8, %self.i.i.i114.us.us
  store i8 %_8.i.us.us, ptr %7, align 1, !alias.scope !12
  %9 = icmp ult i16 %6, %1
  br i1 %9, label %"_ZN11avr_progmem7wrapper26ProgMem$LT$$u5b$T$u5d$$GT$7load_at17hf0b857a44810d128E.exit115.us.us", label %bb60

"_ZN11avr_progmem7wrapper26ProgMem$LT$$u5b$T$u5d$$GT$7load_at17hf0b857a44810d128E.exit115.us": ; preds = %bb22.lr.ph.split.us
  %_69.us = add i16 %1, -1
  %10 = getelementptr inbounds i8, ptr %0, i16 %_69.us
  call addrspace(1) void @llvm.lifetime.start.p0(i64 1, ptr nonnull %buffer.i.i.i111)
  %11 = call addrspace(0) { i8, i8, ptr, ptr } asm sideeffect alignstack "\0A\09\09\09\09\09\09// load value from program memory at indirect Z into temp\0A\09\09\09\09\09\09// register $$3 and post-increment Z by one\0A\09\09\09\09\09\09lpm ${1}, Z+\0A\0A\09\09\09\09\09\09// write register $$3 to data memory at indirect X\0A\09\09\09\09\09\09// and post-increment X by one\0A\09\09\09\09\09\09st X+, ${1}\0A\0A\09\09\09\09\09\09// Decrement the loop counter in register $$0 (size_bytes).\0A\09\09\09\09\09\09// If zero has been reached the equality flag is set.\0A\09\09\09\09\09\09subi ${0}, 1\0A\0A\09\09\09\09\09\09// Check whether the end has not been reached and if so jump back.\0A\09\09\09\09\09\09// The end is reached if $$0 (size_bytes) == 0, i.e. equality flag\0A\09\09\09\09\09\09// is set.\0A\09\09\09\09\09\09// Thus if equality flag is NOT set (brNE) jump back by 4\0A\09\09\09\09\09\09// instruction, that are all instructions in this assembly.\0A\09\09\09\09\09\09// Notice: 4 instructions = 8 Byte\0A\09\09\09\09\09\09brne -8\0A\09\09\09\09\09", "=&r,=&r,=&{r31r30},=&{r27r26},0,2,3,~{sreg},~{memory}"(i8 1, ptr %10, ptr nonnull %buffer.i.i.i111) #12, !srcloc !4
  call addrspace(1) void @llvm.lifetime.end.p0(i64 1, ptr nonnull %buffer.i.i.i111)
; call core::panicking::panic_bounds_check
  call fastcc addrspace(1) void @_ZN4core9panicking18panic_bounds_check17h763c22f7e6216696E(i16 %_4.i.i.i, i16 8) #13
  unreachable

"_ZN11avr_progmem7wrapper26ProgMem$LT$$u5b$T$u5d$$GT$7load_at17hf0b857a44810d128E.exit143.lr.ph": ; preds = %start
  %_27 = and i8 %pos.1.fr, -8
  %_25 = icmp eq i8 %_27, %pos.1.fr
  %_4.i.i.i144 = zext i8 %start_stripe46 to i16
  %_7.i.i.i145 = icmp ult i8 %pos.1.fr, 64
  br i1 %_25, label %"_ZN11avr_progmem7wrapper26ProgMem$LT$$u5b$T$u5d$$GT$7load_at17hf0b857a44810d128E.exit143.lr.ph.split.us", label %"_ZN11avr_progmem7wrapper26ProgMem$LT$$u5b$T$u5d$$GT$7load_at17hf0b857a44810d128E.exit143.preheader"

"_ZN11avr_progmem7wrapper26ProgMem$LT$$u5b$T$u5d$$GT$7load_at17hf0b857a44810d128E.exit143.preheader": ; preds = %"_ZN11avr_progmem7wrapper26ProgMem$LT$$u5b$T$u5d$$GT$7load_at17hf0b857a44810d128E.exit143.lr.ph"
  %offset.i.i167.us = and i8 %pos.1.fr, 7
  %mask.i.i168.us = shl nuw i8 1, %offset.i.i167.us
  %_49.us.1 = add i8 %pos.1.fr, 1
  %stripe1.i.i158.us.1 = lshr i8 %_49.us.1, 3
  %_4.i.i.i.i159.us.1 = zext i8 %stripe1.i.i158.us.1 to i16
  %_7.i.i.i.i160.us.1 = icmp ult i8 %_49.us.1, 64
  %offset.i.i167.us.1 = and i8 %_49.us.1, 7
  %mask.i.i168.us.1 = shl nuw i8 1, %offset.i.i167.us.1
  %_49.us.2 = add i8 %pos.1.fr, 2
  %stripe1.i.i158.us.2 = lshr i8 %_49.us.2, 3
  %_4.i.i.i.i159.us.2 = zext i8 %stripe1.i.i158.us.2 to i16
  %_7.i.i.i.i160.us.2 = icmp ult i8 %_49.us.2, 64
  %offset.i.i167.us.2 = and i8 %_49.us.2, 7
  %mask.i.i168.us.2 = shl nuw i8 1, %offset.i.i167.us.2
  %_49.us.3 = add i8 %pos.1.fr, 3
  %stripe1.i.i158.us.3 = lshr i8 %_49.us.3, 3
  %_4.i.i.i.i159.us.3 = zext i8 %stripe1.i.i158.us.3 to i16
  %_7.i.i.i.i160.us.3 = icmp ult i8 %_49.us.3, 64
  %offset.i.i167.us.3 = and i8 %_49.us.3, 7
  %mask.i.i168.us.3 = shl nuw i8 1, %offset.i.i167.us.3
  %_49.us.4 = add i8 %pos.1.fr, 4
  %stripe1.i.i158.us.4 = lshr i8 %_49.us.4, 3
  %_4.i.i.i.i159.us.4 = zext i8 %stripe1.i.i158.us.4 to i16
  %_7.i.i.i.i160.us.4 = icmp ult i8 %_49.us.4, 64
  %offset.i.i167.us.4 = and i8 %_49.us.4, 7
  %mask.i.i168.us.4 = shl nuw i8 1, %offset.i.i167.us.4
  %_49.us.5 = add i8 %pos.1.fr, 5
  %stripe1.i.i158.us.5 = lshr i8 %_49.us.5, 3
  %_4.i.i.i.i159.us.5 = zext i8 %stripe1.i.i158.us.5 to i16
  %_7.i.i.i.i160.us.5 = icmp ult i8 %_49.us.5, 64
  %offset.i.i167.us.5 = and i8 %_49.us.5, 7
  %mask.i.i168.us.5 = shl nuw i8 1, %offset.i.i167.us.5
  %_49.us.6 = add i8 %pos.1.fr, 6
  %stripe1.i.i158.us.6 = lshr i8 %_49.us.6, 3
  %_4.i.i.i.i159.us.6 = zext i8 %stripe1.i.i158.us.6 to i16
  %_7.i.i.i.i160.us.6 = icmp ult i8 %_49.us.6, 64
  %offset.i.i167.us.6 = and i8 %_49.us.6, 7
  %mask.i.i168.us.6 = shl nuw i8 1, %offset.i.i167.us.6
  %_49.us.7 = add i8 %pos.1.fr, 7
  %stripe1.i.i158.us.7 = lshr i8 %_49.us.7, 3
  %_4.i.i.i.i159.us.7 = zext i8 %stripe1.i.i158.us.7 to i16
  %_7.i.i.i.i160.us.7 = icmp ult i8 %_49.us.7, 64
  %offset.i.i167.us.7 = and i8 %_49.us.7, 7
  %mask.i.i168.us.7 = shl nuw i8 1, %offset.i.i167.us.7
  br label %"_ZN11avr_progmem7wrapper26ProgMem$LT$$u5b$T$u5d$$GT$7load_at17hf0b857a44810d128E.exit143"

"_ZN11avr_progmem7wrapper26ProgMem$LT$$u5b$T$u5d$$GT$7load_at17hf0b857a44810d128E.exit143.lr.ph.split.us": ; preds = %"_ZN11avr_progmem7wrapper26ProgMem$LT$$u5b$T$u5d$$GT$7load_at17hf0b857a44810d128E.exit143.lr.ph"
  br i1 %_7.i.i.i145, label %"_ZN11avr_progmem7wrapper26ProgMem$LT$$u5b$T$u5d$$GT$7load_at17hf0b857a44810d128E.exit143.us.us", label %"_ZN11avr_progmem7wrapper26ProgMem$LT$$u5b$T$u5d$$GT$7load_at17hf0b857a44810d128E.exit143.us", !prof !3

"_ZN11avr_progmem7wrapper26ProgMem$LT$$u5b$T$u5d$$GT$7load_at17hf0b857a44810d128E.exit143.us.us": ; preds = %"_ZN11avr_progmem7wrapper26ProgMem$LT$$u5b$T$u5d$$GT$7load_at17hf0b857a44810d128E.exit143.lr.ph.split.us", %_ZN15worduino_engine11peripherals11Peripherals9or_stripe17h711d67c6485a1121E.exit152.us.us
  %iter.sroa.0.0238.us.us = phi i16 [ %14, %_ZN15worduino_engine11peripherals11Peripherals9or_stripe17h711d67c6485a1121E.exit152.us.us ], [ 0, %"_ZN11avr_progmem7wrapper26ProgMem$LT$$u5b$T$u5d$$GT$7load_at17hf0b857a44810d128E.exit143.lr.ph.split.us" ]
  %dx24.us.us = trunc i16 %iter.sroa.0.0238.us.us to i8
  %12 = getelementptr inbounds i8, ptr %0, i16 %iter.sroa.0.0238.us.us
  call addrspace(1) void @llvm.lifetime.start.p0(i64 1, ptr nonnull %buffer.i.i.i139)
  %13 = call addrspace(0) { i8, i8, ptr, ptr } asm sideeffect alignstack "\0A\09\09\09\09\09\09// load value from program memory at indirect Z into temp\0A\09\09\09\09\09\09// register $$3 and post-increment Z by one\0A\09\09\09\09\09\09lpm ${1}, Z+\0A\0A\09\09\09\09\09\09// write register $$3 to data memory at indirect X\0A\09\09\09\09\09\09// and post-increment X by one\0A\09\09\09\09\09\09st X+, ${1}\0A\0A\09\09\09\09\09\09// Decrement the loop counter in register $$0 (size_bytes).\0A\09\09\09\09\09\09// If zero has been reached the equality flag is set.\0A\09\09\09\09\09\09subi ${0}, 1\0A\0A\09\09\09\09\09\09// Check whether the end has not been reached and if so jump back.\0A\09\09\09\09\09\09// The end is reached if $$0 (size_bytes) == 0, i.e. equality flag\0A\09\09\09\09\09\09// is set.\0A\09\09\09\09\09\09// Thus if equality flag is NOT set (brNE) jump back by 4\0A\09\09\09\09\09\09// instruction, that are all instructions in this assembly.\0A\09\09\09\09\09\09// Notice: 4 instructions = 8 Byte\0A\09\09\09\09\09\09brne -8\0A\09\09\09\09\09", "=&r,=&r,=&{r31r30},=&{r27r26},0,2,3,~{sreg},~{memory}"(i8 1, ptr %12, ptr nonnull %buffer.i.i.i139) #12, !srcloc !4
  %self.i.i.i142.us.us = load i8, ptr %buffer.i.i.i139, align 1
  call addrspace(1) void @llvm.lifetime.end.p0(i64 1, ptr nonnull %buffer.i.i.i139)
  %_31.us.us = add i8 %dx24.us.us, %pos.0
  %_8.i.i.i146.us.us = zext i8 %_31.us.us to i16
  %_11.i.i.i147.us.us = icmp sgt i8 %_31.us.us, -1
  br i1 %_11.i.i.i147.us.us, label %_ZN15worduino_engine11peripherals11Peripherals9or_stripe17h711d67c6485a1121E.exit152.us.us, label %panic1.i.i.i150, !prof !3

_ZN15worduino_engine11peripherals11Peripherals9or_stripe17h711d67c6485a1121E.exit152.us.us: ; preds = %"_ZN11avr_progmem7wrapper26ProgMem$LT$$u5b$T$u5d$$GT$7load_at17hf0b857a44810d128E.exit143.us.us"
  %14 = add nuw i16 %iter.sroa.0.0238.us.us, 1
  %15 = getelementptr inbounds [8 x [128 x i8]], ptr %p, i16 0, i16 %_4.i.i.i144, i16 %_8.i.i.i146.us.us
  %16 = load i8, ptr %15, align 1, !alias.scope !17
  %_8.i151.us.us = or i8 %16, %self.i.i.i142.us.us
  store i8 %_8.i151.us.us, ptr %15, align 1, !alias.scope !24
  %17 = icmp ult i16 %14, %1
  br i1 %17, label %"_ZN11avr_progmem7wrapper26ProgMem$LT$$u5b$T$u5d$$GT$7load_at17hf0b857a44810d128E.exit143.us.us", label %bb60

"_ZN11avr_progmem7wrapper26ProgMem$LT$$u5b$T$u5d$$GT$7load_at17hf0b857a44810d128E.exit143.us": ; preds = %"_ZN11avr_progmem7wrapper26ProgMem$LT$$u5b$T$u5d$$GT$7load_at17hf0b857a44810d128E.exit143.lr.ph.split.us"
  call addrspace(1) void @llvm.lifetime.start.p0(i64 1, ptr nonnull %buffer.i.i.i139)
  %18 = call addrspace(0) { i8, i8, ptr, ptr } asm sideeffect alignstack "\0A\09\09\09\09\09\09// load value from program memory at indirect Z into temp\0A\09\09\09\09\09\09// register $$3 and post-increment Z by one\0A\09\09\09\09\09\09lpm ${1}, Z+\0A\0A\09\09\09\09\09\09// write register $$3 to data memory at indirect X\0A\09\09\09\09\09\09// and post-increment X by one\0A\09\09\09\09\09\09st X+, ${1}\0A\0A\09\09\09\09\09\09// Decrement the loop counter in register $$0 (size_bytes).\0A\09\09\09\09\09\09// If zero has been reached the equality flag is set.\0A\09\09\09\09\09\09subi ${0}, 1\0A\0A\09\09\09\09\09\09// Check whether the end has not been reached and if so jump back.\0A\09\09\09\09\09\09// The end is reached if $$0 (size_bytes) == 0, i.e. equality flag\0A\09\09\09\09\09\09// is set.\0A\09\09\09\09\09\09// Thus if equality flag is NOT set (brNE) jump back by 4\0A\09\09\09\09\09\09// instruction, that are all instructions in this assembly.\0A\09\09\09\09\09\09// Notice: 4 instructions = 8 Byte\0A\09\09\09\09\09\09brne -8\0A\09\09\09\09\09", "=&r,=&r,=&{r31r30},=&{r27r26},0,2,3,~{sreg},~{memory}"(i8 1, ptr %0, ptr nonnull %buffer.i.i.i139) #12, !srcloc !4
  call addrspace(1) void @llvm.lifetime.end.p0(i64 1, ptr nonnull %buffer.i.i.i139)
; call core::panicking::panic_bounds_check
  call fastcc addrspace(1) void @_ZN4core9panicking18panic_bounds_check17h763c22f7e6216696E(i16 %_4.i.i.i144, i16 8) #13
  unreachable

bb2:                                              ; preds = %start
  unreachable

bb49.loopexit:                                    ; preds = %bb56.preheader, %_ZN15worduino_engine11peripherals11Peripherals8or_pixel17hd00019bebb093682E.exit.us.6, %_ZN15worduino_engine11peripherals11Peripherals9set_pixel17hcbc0d339925cf990E.exit.i.us.7
  %19 = icmp ult i16 %20, %1
  br i1 %19, label %"_ZN11avr_progmem7wrapper26ProgMem$LT$$u5b$T$u5d$$GT$7load_at17hf0b857a44810d128E.exit", label %bb60

"_ZN11avr_progmem7wrapper26ProgMem$LT$$u5b$T$u5d$$GT$7load_at17hf0b857a44810d128E.exit": ; preds = %bb49.loopexit, %bb50.preheader
  %iter13.sroa.0.0217 = phi i16 [ %20, %bb49.loopexit ], [ 0, %bb50.preheader ]
  %20 = add nuw i16 %iter13.sroa.0.0217, 1
  %21 = xor i16 %iter13.sroa.0.0217, -1
  %_152 = add i16 %21, %1
  %dy = trunc i16 %iter13.sroa.0.0217 to i8
  %22 = getelementptr inbounds i8, ptr %0, i16 %_152
  call addrspace(1) void @llvm.lifetime.start.p0(i64 1, ptr nonnull %buffer.i.i.i)
  %23 = call addrspace(0) { i8, i8, ptr, ptr } asm sideeffect alignstack "\0A\09\09\09\09\09\09// load value from program memory at indirect Z into temp\0A\09\09\09\09\09\09// register $$3 and post-increment Z by one\0A\09\09\09\09\09\09lpm ${1}, Z+\0A\0A\09\09\09\09\09\09// write register $$3 to data memory at indirect X\0A\09\09\09\09\09\09// and post-increment X by one\0A\09\09\09\09\09\09st X+, ${1}\0A\0A\09\09\09\09\09\09// Decrement the loop counter in register $$0 (size_bytes).\0A\09\09\09\09\09\09// If zero has been reached the equality flag is set.\0A\09\09\09\09\09\09subi ${0}, 1\0A\0A\09\09\09\09\09\09// Check whether the end has not been reached and if so jump back.\0A\09\09\09\09\09\09// The end is reached if $$0 (size_bytes) == 0, i.e. equality flag\0A\09\09\09\09\09\09// is set.\0A\09\09\09\09\09\09// Thus if equality flag is NOT set (brNE) jump back by 4\0A\09\09\09\09\09\09// instruction, that are all instructions in this assembly.\0A\09\09\09\09\09\09// Notice: 4 instructions = 8 Byte\0A\09\09\09\09\09\09brne -8\0A\09\09\09\09\09", "=&r,=&r,=&{r31r30},=&{r27r26},0,2,3,~{sreg},~{memory}"(i8 1, ptr %22, ptr nonnull %buffer.i.i.i) #12, !srcloc !4
  %self.i.i.i = load i8, ptr %buffer.i.i.i, align 1
  call addrspace(1) void @llvm.lifetime.end.p0(i64 1, ptr nonnull %buffer.i.i.i)
  %_170 = add i8 %pos.1.fr, %dy
  %stripe1.i.i = lshr i8 %_170, 3
  %_4.i.i.i.i = zext i8 %stripe1.i.i to i16
  %_7.i.i.i.i = icmp ult i8 %_170, 64
  %offset.i.i = and i8 %_170, 7
  %mask.i.i = shl nuw i8 1, %offset.i.i
  br i1 %_7.i.i.i.i, label %bb56.us.preheader, label %bb56.preheader, !prof !3

bb56.preheader:                                   ; preds = %"_ZN11avr_progmem7wrapper26ProgMem$LT$$u5b$T$u5d$$GT$7load_at17hf0b857a44810d128E.exit"
  %24 = icmp eq i8 %self.i.i.i, 0
  br i1 %24, label %bb49.loopexit, label %bb1.i

bb56.us.preheader:                                ; preds = %"_ZN11avr_progmem7wrapper26ProgMem$LT$$u5b$T$u5d$$GT$7load_at17hf0b857a44810d128E.exit"
  %_174.us = and i8 %self.i.i.i, 1
  %_173.not.us = icmp eq i8 %_174.us, 0
  br i1 %_173.not.us, label %_ZN15worduino_engine11peripherals11Peripherals8or_pixel17hd00019bebb093682E.exit.us, label %bb1.i.us

bb1.i.us:                                         ; preds = %bb56.us.preheader
  br i1 %_11.i.i.i.i.us, label %_ZN15worduino_engine11peripherals11Peripherals9set_pixel17hcbc0d339925cf990E.exit.i.us, label %panic1.i.i.i.i, !prof !3

_ZN15worduino_engine11peripherals11Peripherals9set_pixel17hcbc0d339925cf990E.exit.i.us: ; preds = %bb1.i.us
  %25 = getelementptr inbounds [8 x [128 x i8]], ptr %p, i16 0, i16 %_4.i.i.i.i, i16 %_8.i.i.i.i.us
  %26 = load i8, ptr %25, align 1, !alias.scope !29
  %27 = or i8 %26, %mask.i.i
  store i8 %27, ptr %25, align 1, !alias.scope !38
  br label %_ZN15worduino_engine11peripherals11Peripherals8or_pixel17hd00019bebb093682E.exit.us

_ZN15worduino_engine11peripherals11Peripherals8or_pixel17hd00019bebb093682E.exit.us: ; preds = %_ZN15worduino_engine11peripherals11Peripherals9set_pixel17hcbc0d339925cf990E.exit.i.us, %bb56.us.preheader
  %28 = and i8 %self.i.i.i, 2
  %_173.not.us.1 = icmp eq i8 %28, 0
  br i1 %_173.not.us.1, label %_ZN15worduino_engine11peripherals11Peripherals8or_pixel17hd00019bebb093682E.exit.us.1, label %bb1.i.us.1

bb1.i.us.1:                                       ; preds = %_ZN15worduino_engine11peripherals11Peripherals8or_pixel17hd00019bebb093682E.exit.us
  br i1 %_11.i.i.i.i.us.1, label %_ZN15worduino_engine11peripherals11Peripherals9set_pixel17hcbc0d339925cf990E.exit.i.us.1, label %panic1.i.i.i.i, !prof !3

_ZN15worduino_engine11peripherals11Peripherals9set_pixel17hcbc0d339925cf990E.exit.i.us.1: ; preds = %bb1.i.us.1
  %29 = getelementptr inbounds [8 x [128 x i8]], ptr %p, i16 0, i16 %_4.i.i.i.i, i16 %_8.i.i.i.i.us.1
  %30 = load i8, ptr %29, align 1, !alias.scope !43
  %31 = or i8 %30, %mask.i.i
  store i8 %31, ptr %29, align 1, !alias.scope !48
  br label %_ZN15worduino_engine11peripherals11Peripherals8or_pixel17hd00019bebb093682E.exit.us.1

_ZN15worduino_engine11peripherals11Peripherals8or_pixel17hd00019bebb093682E.exit.us.1: ; preds = %_ZN15worduino_engine11peripherals11Peripherals9set_pixel17hcbc0d339925cf990E.exit.i.us.1, %_ZN15worduino_engine11peripherals11Peripherals8or_pixel17hd00019bebb093682E.exit.us
  %32 = and i8 %self.i.i.i, 4
  %_173.not.us.2 = icmp eq i8 %32, 0
  br i1 %_173.not.us.2, label %_ZN15worduino_engine11peripherals11Peripherals8or_pixel17hd00019bebb093682E.exit.us.2, label %bb1.i.us.2

bb1.i.us.2:                                       ; preds = %_ZN15worduino_engine11peripherals11Peripherals8or_pixel17hd00019bebb093682E.exit.us.1
  br i1 %_11.i.i.i.i.us.2, label %_ZN15worduino_engine11peripherals11Peripherals9set_pixel17hcbc0d339925cf990E.exit.i.us.2, label %panic1.i.i.i.i, !prof !3

_ZN15worduino_engine11peripherals11Peripherals9set_pixel17hcbc0d339925cf990E.exit.i.us.2: ; preds = %bb1.i.us.2
  %33 = getelementptr inbounds [8 x [128 x i8]], ptr %p, i16 0, i16 %_4.i.i.i.i, i16 %_8.i.i.i.i.us.2
  %34 = load i8, ptr %33, align 1, !alias.scope !49
  %35 = or i8 %34, %mask.i.i
  store i8 %35, ptr %33, align 1, !alias.scope !54
  br label %_ZN15worduino_engine11peripherals11Peripherals8or_pixel17hd00019bebb093682E.exit.us.2

_ZN15worduino_engine11peripherals11Peripherals8or_pixel17hd00019bebb093682E.exit.us.2: ; preds = %_ZN15worduino_engine11peripherals11Peripherals9set_pixel17hcbc0d339925cf990E.exit.i.us.2, %_ZN15worduino_engine11peripherals11Peripherals8or_pixel17hd00019bebb093682E.exit.us.1
  %36 = and i8 %self.i.i.i, 8
  %_173.not.us.3 = icmp eq i8 %36, 0
  br i1 %_173.not.us.3, label %_ZN15worduino_engine11peripherals11Peripherals8or_pixel17hd00019bebb093682E.exit.us.3, label %bb1.i.us.3

bb1.i.us.3:                                       ; preds = %_ZN15worduino_engine11peripherals11Peripherals8or_pixel17hd00019bebb093682E.exit.us.2
  br i1 %_11.i.i.i.i.us.3, label %_ZN15worduino_engine11peripherals11Peripherals9set_pixel17hcbc0d339925cf990E.exit.i.us.3, label %panic1.i.i.i.i, !prof !3

_ZN15worduino_engine11peripherals11Peripherals9set_pixel17hcbc0d339925cf990E.exit.i.us.3: ; preds = %bb1.i.us.3
  %37 = getelementptr inbounds [8 x [128 x i8]], ptr %p, i16 0, i16 %_4.i.i.i.i, i16 %_8.i.i.i.i.us.3
  %38 = load i8, ptr %37, align 1, !alias.scope !55
  %39 = or i8 %38, %mask.i.i
  store i8 %39, ptr %37, align 1, !alias.scope !60
  br label %_ZN15worduino_engine11peripherals11Peripherals8or_pixel17hd00019bebb093682E.exit.us.3

_ZN15worduino_engine11peripherals11Peripherals8or_pixel17hd00019bebb093682E.exit.us.3: ; preds = %_ZN15worduino_engine11peripherals11Peripherals9set_pixel17hcbc0d339925cf990E.exit.i.us.3, %_ZN15worduino_engine11peripherals11Peripherals8or_pixel17hd00019bebb093682E.exit.us.2
  %40 = and i8 %self.i.i.i, 16
  %_173.not.us.4 = icmp eq i8 %40, 0
  br i1 %_173.not.us.4, label %_ZN15worduino_engine11peripherals11Peripherals8or_pixel17hd00019bebb093682E.exit.us.4, label %bb1.i.us.4

bb1.i.us.4:                                       ; preds = %_ZN15worduino_engine11peripherals11Peripherals8or_pixel17hd00019bebb093682E.exit.us.3
  br i1 %_11.i.i.i.i.us.4, label %_ZN15worduino_engine11peripherals11Peripherals9set_pixel17hcbc0d339925cf990E.exit.i.us.4, label %panic1.i.i.i.i, !prof !3

_ZN15worduino_engine11peripherals11Peripherals9set_pixel17hcbc0d339925cf990E.exit.i.us.4: ; preds = %bb1.i.us.4
  %41 = getelementptr inbounds [8 x [128 x i8]], ptr %p, i16 0, i16 %_4.i.i.i.i, i16 %_8.i.i.i.i.us.4
  %42 = load i8, ptr %41, align 1, !alias.scope !61
  %43 = or i8 %42, %mask.i.i
  store i8 %43, ptr %41, align 1, !alias.scope !66
  br label %_ZN15worduino_engine11peripherals11Peripherals8or_pixel17hd00019bebb093682E.exit.us.4

_ZN15worduino_engine11peripherals11Peripherals8or_pixel17hd00019bebb093682E.exit.us.4: ; preds = %_ZN15worduino_engine11peripherals11Peripherals9set_pixel17hcbc0d339925cf990E.exit.i.us.4, %_ZN15worduino_engine11peripherals11Peripherals8or_pixel17hd00019bebb093682E.exit.us.3
  %44 = and i8 %self.i.i.i, 32
  %_173.not.us.5 = icmp eq i8 %44, 0
  br i1 %_173.not.us.5, label %_ZN15worduino_engine11peripherals11Peripherals8or_pixel17hd00019bebb093682E.exit.us.5, label %bb1.i.us.5

bb1.i.us.5:                                       ; preds = %_ZN15worduino_engine11peripherals11Peripherals8or_pixel17hd00019bebb093682E.exit.us.4
  br i1 %_11.i.i.i.i.us.5, label %_ZN15worduino_engine11peripherals11Peripherals9set_pixel17hcbc0d339925cf990E.exit.i.us.5, label %panic1.i.i.i.i, !prof !3

_ZN15worduino_engine11peripherals11Peripherals9set_pixel17hcbc0d339925cf990E.exit.i.us.5: ; preds = %bb1.i.us.5
  %45 = getelementptr inbounds [8 x [128 x i8]], ptr %p, i16 0, i16 %_4.i.i.i.i, i16 %_8.i.i.i.i.us.5
  %46 = load i8, ptr %45, align 1, !alias.scope !67
  %47 = or i8 %46, %mask.i.i
  store i8 %47, ptr %45, align 1, !alias.scope !72
  br label %_ZN15worduino_engine11peripherals11Peripherals8or_pixel17hd00019bebb093682E.exit.us.5

_ZN15worduino_engine11peripherals11Peripherals8or_pixel17hd00019bebb093682E.exit.us.5: ; preds = %_ZN15worduino_engine11peripherals11Peripherals9set_pixel17hcbc0d339925cf990E.exit.i.us.5, %_ZN15worduino_engine11peripherals11Peripherals8or_pixel17hd00019bebb093682E.exit.us.4
  %48 = and i8 %self.i.i.i, 64
  %_173.not.us.6 = icmp eq i8 %48, 0
  br i1 %_173.not.us.6, label %_ZN15worduino_engine11peripherals11Peripherals8or_pixel17hd00019bebb093682E.exit.us.6, label %bb1.i.us.6

bb1.i.us.6:                                       ; preds = %_ZN15worduino_engine11peripherals11Peripherals8or_pixel17hd00019bebb093682E.exit.us.5
  br i1 %_11.i.i.i.i.us.6, label %_ZN15worduino_engine11peripherals11Peripherals9set_pixel17hcbc0d339925cf990E.exit.i.us.6, label %panic1.i.i.i.i, !prof !3

_ZN15worduino_engine11peripherals11Peripherals9set_pixel17hcbc0d339925cf990E.exit.i.us.6: ; preds = %bb1.i.us.6
  %49 = getelementptr inbounds [8 x [128 x i8]], ptr %p, i16 0, i16 %_4.i.i.i.i, i16 %_8.i.i.i.i.us.6
  %50 = load i8, ptr %49, align 1, !alias.scope !73
  %51 = or i8 %50, %mask.i.i
  store i8 %51, ptr %49, align 1, !alias.scope !78
  br label %_ZN15worduino_engine11peripherals11Peripherals8or_pixel17hd00019bebb093682E.exit.us.6

_ZN15worduino_engine11peripherals11Peripherals8or_pixel17hd00019bebb093682E.exit.us.6: ; preds = %_ZN15worduino_engine11peripherals11Peripherals9set_pixel17hcbc0d339925cf990E.exit.i.us.6, %_ZN15worduino_engine11peripherals11Peripherals8or_pixel17hd00019bebb093682E.exit.us.5
  %_173.not.us.7 = icmp sgt i8 %self.i.i.i, -1
  br i1 %_173.not.us.7, label %bb49.loopexit, label %bb1.i.us.7

bb1.i.us.7:                                       ; preds = %_ZN15worduino_engine11peripherals11Peripherals8or_pixel17hd00019bebb093682E.exit.us.6
  br i1 %_11.i.i.i.i.us.7, label %_ZN15worduino_engine11peripherals11Peripherals9set_pixel17hcbc0d339925cf990E.exit.i.us.7, label %panic1.i.i.i.i, !prof !3

_ZN15worduino_engine11peripherals11Peripherals9set_pixel17hcbc0d339925cf990E.exit.i.us.7: ; preds = %bb1.i.us.7
  %52 = getelementptr inbounds [8 x [128 x i8]], ptr %p, i16 0, i16 %_4.i.i.i.i, i16 %_8.i.i.i.i.us.7
  %53 = load i8, ptr %52, align 1, !alias.scope !79
  %54 = or i8 %53, %mask.i.i
  store i8 %54, ptr %52, align 1, !alias.scope !84
  br label %bb49.loopexit

bb1.i:                                            ; preds = %bb56.preheader
; call core::panicking::panic_bounds_check
  call fastcc addrspace(1) void @_ZN4core9panicking18panic_bounds_check17h763c22f7e6216696E(i16 %_4.i.i.i.i, i16 8) #13
  unreachable

panic1.i.i.i.i:                                   ; preds = %bb1.i.us.7, %bb1.i.us.6, %bb1.i.us.5, %bb1.i.us.4, %bb1.i.us.3, %bb1.i.us.2, %bb1.i.us.1, %bb1.i.us
  %_8.i.i.i.i.us.lcssa = phi i16 [ %_8.i.i.i.i.us, %bb1.i.us ], [ %_8.i.i.i.i.us.1, %bb1.i.us.1 ], [ %_8.i.i.i.i.us.2, %bb1.i.us.2 ], [ %_8.i.i.i.i.us.3, %bb1.i.us.3 ], [ %_8.i.i.i.i.us.4, %bb1.i.us.4 ], [ %_8.i.i.i.i.us.5, %bb1.i.us.5 ], [ %_8.i.i.i.i.us.6, %bb1.i.us.6 ], [ %_8.i.i.i.i.us.7, %bb1.i.us.7 ]
; call core::panicking::panic_bounds_check
  call fastcc addrspace(1) void @_ZN4core9panicking18panic_bounds_check17h763c22f7e6216696E(i16 %_8.i.i.i.i.us.lcssa, i16 128) #13
  unreachable

bb60:                                             ; preds = %bb49.loopexit, %bb38.loopexit, %bb35.loopexit, %_ZN15worduino_engine11peripherals11Peripherals9or_stripe17h711d67c6485a1121E.exit.us.us, %bb18.loopexit, %_ZN15worduino_engine11peripherals11Peripherals9or_stripe17h711d67c6485a1121E.exit152.us.us
  ret void

bb38.loopexit:                                    ; preds = %bb44.preheader, %_ZN15worduino_engine11peripherals11Peripherals8or_pixel17hd00019bebb093682E.exit105.us.6, %_ZN15worduino_engine11peripherals11Peripherals9set_pixel17hcbc0d339925cf990E.exit.i104.us.7
  %55 = icmp ult i16 %56, %1
  br i1 %55, label %"_ZN11avr_progmem7wrapper26ProgMem$LT$$u5b$T$u5d$$GT$7load_at17hf0b857a44810d128E.exit87", label %bb60

"_ZN11avr_progmem7wrapper26ProgMem$LT$$u5b$T$u5d$$GT$7load_at17hf0b857a44810d128E.exit87": ; preds = %"_ZN11avr_progmem7wrapper26ProgMem$LT$$u5b$T$u5d$$GT$7load_at17hf0b857a44810d128E.exit87.preheader", %bb38.loopexit
  %iter9.sroa.0.0222 = phi i16 [ %56, %bb38.loopexit ], [ 0, %"_ZN11avr_progmem7wrapper26ProgMem$LT$$u5b$T$u5d$$GT$7load_at17hf0b857a44810d128E.exit87.preheader" ]
  %56 = add nuw i16 %iter9.sroa.0.0222, 1
  %dy18 = trunc i16 %iter9.sroa.0.0222 to i8
  %57 = getelementptr inbounds i8, ptr %0, i16 %iter9.sroa.0.0222
  call addrspace(1) void @llvm.lifetime.start.p0(i64 1, ptr nonnull %buffer.i.i.i83)
  %58 = call addrspace(0) { i8, i8, ptr, ptr } asm sideeffect alignstack "\0A\09\09\09\09\09\09// load value from program memory at indirect Z into temp\0A\09\09\09\09\09\09// register $$3 and post-increment Z by one\0A\09\09\09\09\09\09lpm ${1}, Z+\0A\0A\09\09\09\09\09\09// write register $$3 to data memory at indirect X\0A\09\09\09\09\09\09// and post-increment X by one\0A\09\09\09\09\09\09st X+, ${1}\0A\0A\09\09\09\09\09\09// Decrement the loop counter in register $$0 (size_bytes).\0A\09\09\09\09\09\09// If zero has been reached the equality flag is set.\0A\09\09\09\09\09\09subi ${0}, 1\0A\0A\09\09\09\09\09\09// Check whether the end has not been reached and if so jump back.\0A\09\09\09\09\09\09// The end is reached if $$0 (size_bytes) == 0, i.e. equality flag\0A\09\09\09\09\09\09// is set.\0A\09\09\09\09\09\09// Thus if equality flag is NOT set (brNE) jump back by 4\0A\09\09\09\09\09\09// instruction, that are all instructions in this assembly.\0A\09\09\09\09\09\09// Notice: 4 instructions = 8 Byte\0A\09\09\09\09\09\09brne -8\0A\09\09\09\09\09", "=&r,=&r,=&{r31r30},=&{r27r26},0,2,3,~{sreg},~{memory}"(i8 1, ptr %57, ptr nonnull %buffer.i.i.i83) #12, !srcloc !4
  %self.i.i.i86 = load i8, ptr %buffer.i.i.i83, align 1
  call addrspace(1) void @llvm.lifetime.end.p0(i64 1, ptr nonnull %buffer.i.i.i83)
  %_132 = add i8 %pos.1.fr, %dy18
  %stripe1.i.i93 = lshr i8 %_132, 3
  %_4.i.i.i.i94 = zext i8 %stripe1.i.i93 to i16
  %_7.i.i.i.i95 = icmp ult i8 %_132, 64
  %offset.i.i102 = and i8 %_132, 7
  %mask.i.i103 = shl nuw i8 1, %offset.i.i102
  br i1 %_7.i.i.i.i95, label %bb44.us.preheader, label %bb44.preheader, !prof !3

bb44.preheader:                                   ; preds = %"_ZN11avr_progmem7wrapper26ProgMem$LT$$u5b$T$u5d$$GT$7load_at17hf0b857a44810d128E.exit87"
  %59 = icmp eq i8 %self.i.i.i86, 0
  br i1 %59, label %bb38.loopexit, label %bb1.i96

bb44.us.preheader:                                ; preds = %"_ZN11avr_progmem7wrapper26ProgMem$LT$$u5b$T$u5d$$GT$7load_at17hf0b857a44810d128E.exit87"
  %_136.us = and i8 %self.i.i.i86, 1
  %_135.not.us = icmp eq i8 %_136.us, 0
  br i1 %_135.not.us, label %_ZN15worduino_engine11peripherals11Peripherals8or_pixel17hd00019bebb093682E.exit105.us, label %bb1.i96.us

bb1.i96.us:                                       ; preds = %bb44.us.preheader
  br i1 %_11.i.i.i.i98.us, label %_ZN15worduino_engine11peripherals11Peripherals9set_pixel17hcbc0d339925cf990E.exit.i104.us, label %panic1.i.i.i.i101, !prof !3

_ZN15worduino_engine11peripherals11Peripherals9set_pixel17hcbc0d339925cf990E.exit.i104.us: ; preds = %bb1.i96.us
  %60 = getelementptr inbounds [8 x [128 x i8]], ptr %p, i16 0, i16 %_4.i.i.i.i94, i16 %_8.i.i.i.i97.us
  %61 = load i8, ptr %60, align 1, !alias.scope !85
  %62 = or i8 %61, %mask.i.i103
  store i8 %62, ptr %60, align 1, !alias.scope !94
  br label %_ZN15worduino_engine11peripherals11Peripherals8or_pixel17hd00019bebb093682E.exit105.us

_ZN15worduino_engine11peripherals11Peripherals8or_pixel17hd00019bebb093682E.exit105.us: ; preds = %_ZN15worduino_engine11peripherals11Peripherals9set_pixel17hcbc0d339925cf990E.exit.i104.us, %bb44.us.preheader
  %63 = and i8 %self.i.i.i86, 2
  %_135.not.us.1 = icmp eq i8 %63, 0
  br i1 %_135.not.us.1, label %_ZN15worduino_engine11peripherals11Peripherals8or_pixel17hd00019bebb093682E.exit105.us.1, label %bb1.i96.us.1

bb1.i96.us.1:                                     ; preds = %_ZN15worduino_engine11peripherals11Peripherals8or_pixel17hd00019bebb093682E.exit105.us
  br i1 %_11.i.i.i.i98.us.1, label %_ZN15worduino_engine11peripherals11Peripherals9set_pixel17hcbc0d339925cf990E.exit.i104.us.1, label %panic1.i.i.i.i101, !prof !3

_ZN15worduino_engine11peripherals11Peripherals9set_pixel17hcbc0d339925cf990E.exit.i104.us.1: ; preds = %bb1.i96.us.1
  %64 = getelementptr inbounds [8 x [128 x i8]], ptr %p, i16 0, i16 %_4.i.i.i.i94, i16 %_8.i.i.i.i97.us.1
  %65 = load i8, ptr %64, align 1, !alias.scope !99
  %66 = or i8 %65, %mask.i.i103
  store i8 %66, ptr %64, align 1, !alias.scope !104
  br label %_ZN15worduino_engine11peripherals11Peripherals8or_pixel17hd00019bebb093682E.exit105.us.1

_ZN15worduino_engine11peripherals11Peripherals8or_pixel17hd00019bebb093682E.exit105.us.1: ; preds = %_ZN15worduino_engine11peripherals11Peripherals9set_pixel17hcbc0d339925cf990E.exit.i104.us.1, %_ZN15worduino_engine11peripherals11Peripherals8or_pixel17hd00019bebb093682E.exit105.us
  %67 = and i8 %self.i.i.i86, 4
  %_135.not.us.2 = icmp eq i8 %67, 0
  br i1 %_135.not.us.2, label %_ZN15worduino_engine11peripherals11Peripherals8or_pixel17hd00019bebb093682E.exit105.us.2, label %bb1.i96.us.2

bb1.i96.us.2:                                     ; preds = %_ZN15worduino_engine11peripherals11Peripherals8or_pixel17hd00019bebb093682E.exit105.us.1
  br i1 %_11.i.i.i.i98.us.2, label %_ZN15worduino_engine11peripherals11Peripherals9set_pixel17hcbc0d339925cf990E.exit.i104.us.2, label %panic1.i.i.i.i101, !prof !3

_ZN15worduino_engine11peripherals11Peripherals9set_pixel17hcbc0d339925cf990E.exit.i104.us.2: ; preds = %bb1.i96.us.2
  %68 = getelementptr inbounds [8 x [128 x i8]], ptr %p, i16 0, i16 %_4.i.i.i.i94, i16 %_8.i.i.i.i97.us.2
  %69 = load i8, ptr %68, align 1, !alias.scope !105
  %70 = or i8 %69, %mask.i.i103
  store i8 %70, ptr %68, align 1, !alias.scope !110
  br label %_ZN15worduino_engine11peripherals11Peripherals8or_pixel17hd00019bebb093682E.exit105.us.2

_ZN15worduino_engine11peripherals11Peripherals8or_pixel17hd00019bebb093682E.exit105.us.2: ; preds = %_ZN15worduino_engine11peripherals11Peripherals9set_pixel17hcbc0d339925cf990E.exit.i104.us.2, %_ZN15worduino_engine11peripherals11Peripherals8or_pixel17hd00019bebb093682E.exit105.us.1
  %71 = and i8 %self.i.i.i86, 8
  %_135.not.us.3 = icmp eq i8 %71, 0
  br i1 %_135.not.us.3, label %_ZN15worduino_engine11peripherals11Peripherals8or_pixel17hd00019bebb093682E.exit105.us.3, label %bb1.i96.us.3

bb1.i96.us.3:                                     ; preds = %_ZN15worduino_engine11peripherals11Peripherals8or_pixel17hd00019bebb093682E.exit105.us.2
  br i1 %_11.i.i.i.i98.us.3, label %_ZN15worduino_engine11peripherals11Peripherals9set_pixel17hcbc0d339925cf990E.exit.i104.us.3, label %panic1.i.i.i.i101, !prof !3

_ZN15worduino_engine11peripherals11Peripherals9set_pixel17hcbc0d339925cf990E.exit.i104.us.3: ; preds = %bb1.i96.us.3
  %72 = getelementptr inbounds [8 x [128 x i8]], ptr %p, i16 0, i16 %_4.i.i.i.i94, i16 %_8.i.i.i.i97.us.3
  %73 = load i8, ptr %72, align 1, !alias.scope !111
  %74 = or i8 %73, %mask.i.i103
  store i8 %74, ptr %72, align 1, !alias.scope !116
  br label %_ZN15worduino_engine11peripherals11Peripherals8or_pixel17hd00019bebb093682E.exit105.us.3

_ZN15worduino_engine11peripherals11Peripherals8or_pixel17hd00019bebb093682E.exit105.us.3: ; preds = %_ZN15worduino_engine11peripherals11Peripherals9set_pixel17hcbc0d339925cf990E.exit.i104.us.3, %_ZN15worduino_engine11peripherals11Peripherals8or_pixel17hd00019bebb093682E.exit105.us.2
  %75 = and i8 %self.i.i.i86, 16
  %_135.not.us.4 = icmp eq i8 %75, 0
  br i1 %_135.not.us.4, label %_ZN15worduino_engine11peripherals11Peripherals8or_pixel17hd00019bebb093682E.exit105.us.4, label %bb1.i96.us.4

bb1.i96.us.4:                                     ; preds = %_ZN15worduino_engine11peripherals11Peripherals8or_pixel17hd00019bebb093682E.exit105.us.3
  br i1 %_11.i.i.i.i98.us.4, label %_ZN15worduino_engine11peripherals11Peripherals9set_pixel17hcbc0d339925cf990E.exit.i104.us.4, label %panic1.i.i.i.i101, !prof !3

_ZN15worduino_engine11peripherals11Peripherals9set_pixel17hcbc0d339925cf990E.exit.i104.us.4: ; preds = %bb1.i96.us.4
  %76 = getelementptr inbounds [8 x [128 x i8]], ptr %p, i16 0, i16 %_4.i.i.i.i94, i16 %_8.i.i.i.i97.us.4
  %77 = load i8, ptr %76, align 1, !alias.scope !117
  %78 = or i8 %77, %mask.i.i103
  store i8 %78, ptr %76, align 1, !alias.scope !122
  br label %_ZN15worduino_engine11peripherals11Peripherals8or_pixel17hd00019bebb093682E.exit105.us.4

_ZN15worduino_engine11peripherals11Peripherals8or_pixel17hd00019bebb093682E.exit105.us.4: ; preds = %_ZN15worduino_engine11peripherals11Peripherals9set_pixel17hcbc0d339925cf990E.exit.i104.us.4, %_ZN15worduino_engine11peripherals11Peripherals8or_pixel17hd00019bebb093682E.exit105.us.3
  %79 = and i8 %self.i.i.i86, 32
  %_135.not.us.5 = icmp eq i8 %79, 0
  br i1 %_135.not.us.5, label %_ZN15worduino_engine11peripherals11Peripherals8or_pixel17hd00019bebb093682E.exit105.us.5, label %bb1.i96.us.5

bb1.i96.us.5:                                     ; preds = %_ZN15worduino_engine11peripherals11Peripherals8or_pixel17hd00019bebb093682E.exit105.us.4
  br i1 %_11.i.i.i.i98.us.5, label %_ZN15worduino_engine11peripherals11Peripherals9set_pixel17hcbc0d339925cf990E.exit.i104.us.5, label %panic1.i.i.i.i101, !prof !3

_ZN15worduino_engine11peripherals11Peripherals9set_pixel17hcbc0d339925cf990E.exit.i104.us.5: ; preds = %bb1.i96.us.5
  %80 = getelementptr inbounds [8 x [128 x i8]], ptr %p, i16 0, i16 %_4.i.i.i.i94, i16 %_8.i.i.i.i97.us.5
  %81 = load i8, ptr %80, align 1, !alias.scope !123
  %82 = or i8 %81, %mask.i.i103
  store i8 %82, ptr %80, align 1, !alias.scope !128
  br label %_ZN15worduino_engine11peripherals11Peripherals8or_pixel17hd00019bebb093682E.exit105.us.5

_ZN15worduino_engine11peripherals11Peripherals8or_pixel17hd00019bebb093682E.exit105.us.5: ; preds = %_ZN15worduino_engine11peripherals11Peripherals9set_pixel17hcbc0d339925cf990E.exit.i104.us.5, %_ZN15worduino_engine11peripherals11Peripherals8or_pixel17hd00019bebb093682E.exit105.us.4
  %83 = and i8 %self.i.i.i86, 64
  %_135.not.us.6 = icmp eq i8 %83, 0
  br i1 %_135.not.us.6, label %_ZN15worduino_engine11peripherals11Peripherals8or_pixel17hd00019bebb093682E.exit105.us.6, label %bb1.i96.us.6

bb1.i96.us.6:                                     ; preds = %_ZN15worduino_engine11peripherals11Peripherals8or_pixel17hd00019bebb093682E.exit105.us.5
  br i1 %_11.i.i.i.i98.us.6, label %_ZN15worduino_engine11peripherals11Peripherals9set_pixel17hcbc0d339925cf990E.exit.i104.us.6, label %panic1.i.i.i.i101, !prof !3

_ZN15worduino_engine11peripherals11Peripherals9set_pixel17hcbc0d339925cf990E.exit.i104.us.6: ; preds = %bb1.i96.us.6
  %84 = getelementptr inbounds [8 x [128 x i8]], ptr %p, i16 0, i16 %_4.i.i.i.i94, i16 %_8.i.i.i.i97.us.6
  %85 = load i8, ptr %84, align 1, !alias.scope !129
  %86 = or i8 %85, %mask.i.i103
  store i8 %86, ptr %84, align 1, !alias.scope !134
  br label %_ZN15worduino_engine11peripherals11Peripherals8or_pixel17hd00019bebb093682E.exit105.us.6

_ZN15worduino_engine11peripherals11Peripherals8or_pixel17hd00019bebb093682E.exit105.us.6: ; preds = %_ZN15worduino_engine11peripherals11Peripherals9set_pixel17hcbc0d339925cf990E.exit.i104.us.6, %_ZN15worduino_engine11peripherals11Peripherals8or_pixel17hd00019bebb093682E.exit105.us.5
  %_135.not.us.7 = icmp sgt i8 %self.i.i.i86, -1
  br i1 %_135.not.us.7, label %bb38.loopexit, label %bb1.i96.us.7

bb1.i96.us.7:                                     ; preds = %_ZN15worduino_engine11peripherals11Peripherals8or_pixel17hd00019bebb093682E.exit105.us.6
  br i1 %_11.i.i.i.i98.us.7, label %_ZN15worduino_engine11peripherals11Peripherals9set_pixel17hcbc0d339925cf990E.exit.i104.us.7, label %panic1.i.i.i.i101, !prof !3

_ZN15worduino_engine11peripherals11Peripherals9set_pixel17hcbc0d339925cf990E.exit.i104.us.7: ; preds = %bb1.i96.us.7
  %87 = getelementptr inbounds [8 x [128 x i8]], ptr %p, i16 0, i16 %_4.i.i.i.i94, i16 %_8.i.i.i.i97.us.7
  %88 = load i8, ptr %87, align 1, !alias.scope !135
  %89 = or i8 %88, %mask.i.i103
  store i8 %89, ptr %87, align 1, !alias.scope !140
  br label %bb38.loopexit

bb1.i96:                                          ; preds = %bb44.preheader
; call core::panicking::panic_bounds_check
  call fastcc addrspace(1) void @_ZN4core9panicking18panic_bounds_check17h763c22f7e6216696E(i16 %_4.i.i.i.i94, i16 8) #13
  unreachable

panic1.i.i.i.i101:                                ; preds = %bb1.i96.us.7, %bb1.i96.us.6, %bb1.i96.us.5, %bb1.i96.us.4, %bb1.i96.us.3, %bb1.i96.us.2, %bb1.i96.us.1, %bb1.i96.us
  %_8.i.i.i.i97.us.lcssa = phi i16 [ %_8.i.i.i.i97.us, %bb1.i96.us ], [ %_8.i.i.i.i97.us.1, %bb1.i96.us.1 ], [ %_8.i.i.i.i97.us.2, %bb1.i96.us.2 ], [ %_8.i.i.i.i97.us.3, %bb1.i96.us.3 ], [ %_8.i.i.i.i97.us.4, %bb1.i96.us.4 ], [ %_8.i.i.i.i97.us.5, %bb1.i96.us.5 ], [ %_8.i.i.i.i97.us.6, %bb1.i96.us.6 ], [ %_8.i.i.i.i97.us.7, %bb1.i96.us.7 ]
; call core::panicking::panic_bounds_check
  call fastcc addrspace(1) void @_ZN4core9panicking18panic_bounds_check17h763c22f7e6216696E(i16 %_8.i.i.i.i97.us.lcssa, i16 128) #13
  unreachable

"_ZN11avr_progmem7wrapper26ProgMem$LT$$u5b$T$u5d$$GT$7load_at17hf0b857a44810d128E.exit115": ; preds = %bb35.loopexit, %bb22.preheader
  %iter4.sroa.0.0228 = phi i16 [ %90, %bb35.loopexit ], [ 0, %bb22.preheader ]
  %90 = add nuw i16 %iter4.sroa.0.0228, 1
  %91 = xor i16 %iter4.sroa.0.0228, -1
  %_69 = add i16 %91, %1
  %dx21 = trunc i16 %iter4.sroa.0.0228 to i8
  %92 = getelementptr inbounds i8, ptr %0, i16 %_69
  call addrspace(1) void @llvm.lifetime.start.p0(i64 1, ptr nonnull %buffer.i.i.i111)
  %93 = call addrspace(0) { i8, i8, ptr, ptr } asm sideeffect alignstack "\0A\09\09\09\09\09\09// load value from program memory at indirect Z into temp\0A\09\09\09\09\09\09// register $$3 and post-increment Z by one\0A\09\09\09\09\09\09lpm ${1}, Z+\0A\0A\09\09\09\09\09\09// write register $$3 to data memory at indirect X\0A\09\09\09\09\09\09// and post-increment X by one\0A\09\09\09\09\09\09st X+, ${1}\0A\0A\09\09\09\09\09\09// Decrement the loop counter in register $$0 (size_bytes).\0A\09\09\09\09\09\09// If zero has been reached the equality flag is set.\0A\09\09\09\09\09\09subi ${0}, 1\0A\0A\09\09\09\09\09\09// Check whether the end has not been reached and if so jump back.\0A\09\09\09\09\09\09// The end is reached if $$0 (size_bytes) == 0, i.e. equality flag\0A\09\09\09\09\09\09// is set.\0A\09\09\09\09\09\09// Thus if equality flag is NOT set (brNE) jump back by 4\0A\09\09\09\09\09\09// instruction, that are all instructions in this assembly.\0A\09\09\09\09\09\09// Notice: 4 instructions = 8 Byte\0A\09\09\09\09\09\09brne -8\0A\09\09\09\09\09", "=&r,=&r,=&{r31r30},=&{r27r26},0,2,3,~{sreg},~{memory}"(i8 1, ptr %92, ptr nonnull %buffer.i.i.i111) #12, !srcloc !4
  %self.i.i.i114 = load i8, ptr %buffer.i.i.i111, align 1
  call addrspace(1) void @llvm.lifetime.end.p0(i64 1, ptr nonnull %buffer.i.i.i111)
  %_95 = add i8 %dx21, %pos.0
  %_95.fr = freeze i8 %_95
  %_8.i.i.i.i125 = zext i8 %_95.fr to i16
  %_11.i.i.i.i126 = icmp sgt i8 %_95.fr, -1
  %_102.us = and i8 %self.i.i.i114, 1
  %_101.not.us = icmp eq i8 %_102.us, 0
  br i1 %_11.i.i.i.i126, label %bb31.us.preheader, label %bb31.preheader, !prof !3

bb31.preheader:                                   ; preds = %"_ZN11avr_progmem7wrapper26ProgMem$LT$$u5b$T$u5d$$GT$7load_at17hf0b857a44810d128E.exit115"
  br i1 %_101.not.us, label %_ZN15worduino_engine11peripherals11Peripherals8or_pixel17hd00019bebb093682E.exit133, label %bb1.i124

bb31.us.preheader:                                ; preds = %"_ZN11avr_progmem7wrapper26ProgMem$LT$$u5b$T$u5d$$GT$7load_at17hf0b857a44810d128E.exit115"
  br i1 %_101.not.us, label %_ZN15worduino_engine11peripherals11Peripherals8or_pixel17hd00019bebb093682E.exit133.us, label %bb1.i124.us

bb1.i124.us:                                      ; preds = %bb31.us.preheader
  br i1 %_7.i.i.i, label %bb1.i.i.i.i127.us, label %panic.i.i.i.i128, !prof !3

bb1.i.i.i.i127.us:                                ; preds = %bb1.i124.us
  %94 = getelementptr inbounds [8 x [128 x i8]], ptr %p, i16 0, i16 %_4.i.i.i, i16 %_8.i.i.i.i125
  %95 = load i8, ptr %94, align 1, !alias.scope !141
  %96 = or i8 %95, %mask.i.i131.us
  store i8 %96, ptr %94, align 1, !alias.scope !150
  br label %_ZN15worduino_engine11peripherals11Peripherals8or_pixel17hd00019bebb093682E.exit133.us

_ZN15worduino_engine11peripherals11Peripherals8or_pixel17hd00019bebb093682E.exit133.us: ; preds = %bb1.i.i.i.i127.us, %bb31.us.preheader
  %97 = and i8 %self.i.i.i114, 2
  %_101.not.us.1 = icmp eq i8 %97, 0
  br i1 %_101.not.us.1, label %_ZN15worduino_engine11peripherals11Peripherals8or_pixel17hd00019bebb093682E.exit133.us.1, label %bb1.i124.us.1

bb1.i124.us.1:                                    ; preds = %_ZN15worduino_engine11peripherals11Peripherals8or_pixel17hd00019bebb093682E.exit133.us
  br i1 %_7.i.i.i.i123.us.1, label %bb1.i.i.i.i127.us.1, label %panic.i.i.i.i128, !prof !3

bb1.i.i.i.i127.us.1:                              ; preds = %bb1.i124.us.1
  %98 = getelementptr inbounds [8 x [128 x i8]], ptr %p, i16 0, i16 %_4.i.i.i.i122.us.1, i16 %_8.i.i.i.i125
  %99 = load i8, ptr %98, align 1, !alias.scope !155
  %100 = or i8 %99, %mask.i.i131.us.1
  store i8 %100, ptr %98, align 1, !alias.scope !160
  br label %_ZN15worduino_engine11peripherals11Peripherals8or_pixel17hd00019bebb093682E.exit133.us.1

_ZN15worduino_engine11peripherals11Peripherals8or_pixel17hd00019bebb093682E.exit133.us.1: ; preds = %bb1.i.i.i.i127.us.1, %_ZN15worduino_engine11peripherals11Peripherals8or_pixel17hd00019bebb093682E.exit133.us
  %101 = and i8 %self.i.i.i114, 4
  %_101.not.us.2 = icmp eq i8 %101, 0
  br i1 %_101.not.us.2, label %_ZN15worduino_engine11peripherals11Peripherals8or_pixel17hd00019bebb093682E.exit133.us.2, label %bb1.i124.us.2

bb1.i124.us.2:                                    ; preds = %_ZN15worduino_engine11peripherals11Peripherals8or_pixel17hd00019bebb093682E.exit133.us.1
  br i1 %_7.i.i.i.i123.us.2, label %bb1.i.i.i.i127.us.2, label %panic.i.i.i.i128, !prof !3

bb1.i.i.i.i127.us.2:                              ; preds = %bb1.i124.us.2
  %102 = getelementptr inbounds [8 x [128 x i8]], ptr %p, i16 0, i16 %_4.i.i.i.i122.us.2, i16 %_8.i.i.i.i125
  %103 = load i8, ptr %102, align 1, !alias.scope !161
  %104 = or i8 %103, %mask.i.i131.us.2
  store i8 %104, ptr %102, align 1, !alias.scope !166
  br label %_ZN15worduino_engine11peripherals11Peripherals8or_pixel17hd00019bebb093682E.exit133.us.2

_ZN15worduino_engine11peripherals11Peripherals8or_pixel17hd00019bebb093682E.exit133.us.2: ; preds = %bb1.i.i.i.i127.us.2, %_ZN15worduino_engine11peripherals11Peripherals8or_pixel17hd00019bebb093682E.exit133.us.1
  %105 = and i8 %self.i.i.i114, 8
  %_101.not.us.3 = icmp eq i8 %105, 0
  br i1 %_101.not.us.3, label %_ZN15worduino_engine11peripherals11Peripherals8or_pixel17hd00019bebb093682E.exit133.us.3, label %bb1.i124.us.3

bb1.i124.us.3:                                    ; preds = %_ZN15worduino_engine11peripherals11Peripherals8or_pixel17hd00019bebb093682E.exit133.us.2
  br i1 %_7.i.i.i.i123.us.3, label %bb1.i.i.i.i127.us.3, label %panic.i.i.i.i128, !prof !3

bb1.i.i.i.i127.us.3:                              ; preds = %bb1.i124.us.3
  %106 = getelementptr inbounds [8 x [128 x i8]], ptr %p, i16 0, i16 %_4.i.i.i.i122.us.3, i16 %_8.i.i.i.i125
  %107 = load i8, ptr %106, align 1, !alias.scope !167
  %108 = or i8 %107, %mask.i.i131.us.3
  store i8 %108, ptr %106, align 1, !alias.scope !172
  br label %_ZN15worduino_engine11peripherals11Peripherals8or_pixel17hd00019bebb093682E.exit133.us.3

_ZN15worduino_engine11peripherals11Peripherals8or_pixel17hd00019bebb093682E.exit133.us.3: ; preds = %bb1.i.i.i.i127.us.3, %_ZN15worduino_engine11peripherals11Peripherals8or_pixel17hd00019bebb093682E.exit133.us.2
  %109 = and i8 %self.i.i.i114, 16
  %_101.not.us.4 = icmp eq i8 %109, 0
  br i1 %_101.not.us.4, label %_ZN15worduino_engine11peripherals11Peripherals8or_pixel17hd00019bebb093682E.exit133.us.4, label %bb1.i124.us.4

bb1.i124.us.4:                                    ; preds = %_ZN15worduino_engine11peripherals11Peripherals8or_pixel17hd00019bebb093682E.exit133.us.3
  br i1 %_7.i.i.i.i123.us.4, label %bb1.i.i.i.i127.us.4, label %panic.i.i.i.i128, !prof !3

bb1.i.i.i.i127.us.4:                              ; preds = %bb1.i124.us.4
  %110 = getelementptr inbounds [8 x [128 x i8]], ptr %p, i16 0, i16 %_4.i.i.i.i122.us.4, i16 %_8.i.i.i.i125
  %111 = load i8, ptr %110, align 1, !alias.scope !173
  %112 = or i8 %111, %mask.i.i131.us.4
  store i8 %112, ptr %110, align 1, !alias.scope !178
  br label %_ZN15worduino_engine11peripherals11Peripherals8or_pixel17hd00019bebb093682E.exit133.us.4

_ZN15worduino_engine11peripherals11Peripherals8or_pixel17hd00019bebb093682E.exit133.us.4: ; preds = %bb1.i.i.i.i127.us.4, %_ZN15worduino_engine11peripherals11Peripherals8or_pixel17hd00019bebb093682E.exit133.us.3
  %113 = and i8 %self.i.i.i114, 32
  %_101.not.us.5 = icmp eq i8 %113, 0
  br i1 %_101.not.us.5, label %_ZN15worduino_engine11peripherals11Peripherals8or_pixel17hd00019bebb093682E.exit133.us.5, label %bb1.i124.us.5

bb1.i124.us.5:                                    ; preds = %_ZN15worduino_engine11peripherals11Peripherals8or_pixel17hd00019bebb093682E.exit133.us.4
  br i1 %_7.i.i.i.i123.us.5, label %bb1.i.i.i.i127.us.5, label %panic.i.i.i.i128, !prof !3

bb1.i.i.i.i127.us.5:                              ; preds = %bb1.i124.us.5
  %114 = getelementptr inbounds [8 x [128 x i8]], ptr %p, i16 0, i16 %_4.i.i.i.i122.us.5, i16 %_8.i.i.i.i125
  %115 = load i8, ptr %114, align 1, !alias.scope !179
  %116 = or i8 %115, %mask.i.i131.us.5
  store i8 %116, ptr %114, align 1, !alias.scope !184
  br label %_ZN15worduino_engine11peripherals11Peripherals8or_pixel17hd00019bebb093682E.exit133.us.5

_ZN15worduino_engine11peripherals11Peripherals8or_pixel17hd00019bebb093682E.exit133.us.5: ; preds = %bb1.i.i.i.i127.us.5, %_ZN15worduino_engine11peripherals11Peripherals8or_pixel17hd00019bebb093682E.exit133.us.4
  %117 = and i8 %self.i.i.i114, 64
  %_101.not.us.6 = icmp eq i8 %117, 0
  br i1 %_101.not.us.6, label %_ZN15worduino_engine11peripherals11Peripherals8or_pixel17hd00019bebb093682E.exit133.us.6, label %bb1.i124.us.6

bb1.i124.us.6:                                    ; preds = %_ZN15worduino_engine11peripherals11Peripherals8or_pixel17hd00019bebb093682E.exit133.us.5
  br i1 %_7.i.i.i.i123.us.6, label %bb1.i.i.i.i127.us.6, label %panic.i.i.i.i128, !prof !3

bb1.i.i.i.i127.us.6:                              ; preds = %bb1.i124.us.6
  %118 = getelementptr inbounds [8 x [128 x i8]], ptr %p, i16 0, i16 %_4.i.i.i.i122.us.6, i16 %_8.i.i.i.i125
  %119 = load i8, ptr %118, align 1, !alias.scope !185
  %120 = or i8 %119, %mask.i.i131.us.6
  store i8 %120, ptr %118, align 1, !alias.scope !190
  br label %_ZN15worduino_engine11peripherals11Peripherals8or_pixel17hd00019bebb093682E.exit133.us.6

_ZN15worduino_engine11peripherals11Peripherals8or_pixel17hd00019bebb093682E.exit133.us.6: ; preds = %bb1.i.i.i.i127.us.6, %_ZN15worduino_engine11peripherals11Peripherals8or_pixel17hd00019bebb093682E.exit133.us.5
  %_101.not.us.7 = icmp sgt i8 %self.i.i.i114, -1
  br i1 %_101.not.us.7, label %bb35.loopexit, label %bb1.i124.us.7

bb1.i124.us.7:                                    ; preds = %_ZN15worduino_engine11peripherals11Peripherals8or_pixel17hd00019bebb093682E.exit133.us.6
  br i1 %_7.i.i.i.i123.us.7, label %bb1.i.i.i.i127.us.7, label %panic.i.i.i.i128, !prof !3

bb1.i.i.i.i127.us.7:                              ; preds = %bb1.i124.us.7
  %121 = getelementptr inbounds [8 x [128 x i8]], ptr %p, i16 0, i16 %_4.i.i.i.i122.us.7, i16 %_8.i.i.i.i125
  %122 = load i8, ptr %121, align 1, !alias.scope !191
  %123 = or i8 %122, %mask.i.i131.us.7
  store i8 %123, ptr %121, align 1, !alias.scope !196
  br label %bb35.loopexit

panic1.i.i.i:                                     ; preds = %"_ZN11avr_progmem7wrapper26ProgMem$LT$$u5b$T$u5d$$GT$7load_at17hf0b857a44810d128E.exit115.us.us"
; call core::panicking::panic_bounds_check
  call fastcc addrspace(1) void @_ZN4core9panicking18panic_bounds_check17h763c22f7e6216696E(i16 %_8.i.i.i.us.us, i16 128) #13
  unreachable

bb35.loopexit:                                    ; preds = %_ZN15worduino_engine11peripherals11Peripherals8or_pixel17hd00019bebb093682E.exit133.6, %_ZN15worduino_engine11peripherals11Peripherals8or_pixel17hd00019bebb093682E.exit133.us.6, %bb1.i.i.i.i127.us.7
  %124 = icmp ult i16 %90, %1
  br i1 %124, label %"_ZN11avr_progmem7wrapper26ProgMem$LT$$u5b$T$u5d$$GT$7load_at17hf0b857a44810d128E.exit115", label %bb60

bb1.i124:                                         ; preds = %_ZN15worduino_engine11peripherals11Peripherals8or_pixel17hd00019bebb093682E.exit133.6, %_ZN15worduino_engine11peripherals11Peripherals8or_pixel17hd00019bebb093682E.exit133.5, %_ZN15worduino_engine11peripherals11Peripherals8or_pixel17hd00019bebb093682E.exit133.4, %_ZN15worduino_engine11peripherals11Peripherals8or_pixel17hd00019bebb093682E.exit133.3, %_ZN15worduino_engine11peripherals11Peripherals8or_pixel17hd00019bebb093682E.exit133.2, %_ZN15worduino_engine11peripherals11Peripherals8or_pixel17hd00019bebb093682E.exit133.1, %_ZN15worduino_engine11peripherals11Peripherals8or_pixel17hd00019bebb093682E.exit133, %bb31.preheader
  %iter7.sroa.0.0223.lcssa = phi i8 [ 0, %bb31.preheader ], [ 7, %_ZN15worduino_engine11peripherals11Peripherals8or_pixel17hd00019bebb093682E.exit133.6 ], [ 6, %_ZN15worduino_engine11peripherals11Peripherals8or_pixel17hd00019bebb093682E.exit133.5 ], [ 5, %_ZN15worduino_engine11peripherals11Peripherals8or_pixel17hd00019bebb093682E.exit133.4 ], [ 4, %_ZN15worduino_engine11peripherals11Peripherals8or_pixel17hd00019bebb093682E.exit133.3 ], [ 3, %_ZN15worduino_engine11peripherals11Peripherals8or_pixel17hd00019bebb093682E.exit133.2 ], [ 2, %_ZN15worduino_engine11peripherals11Peripherals8or_pixel17hd00019bebb093682E.exit133.1 ], [ 1, %_ZN15worduino_engine11peripherals11Peripherals8or_pixel17hd00019bebb093682E.exit133 ]
  %_98.le = add i8 %iter7.sroa.0.0223.lcssa, %pos.1.fr
  %stripe1.i.i121 = lshr i8 %_98.le, 3
  %_4.i.i.i.i122 = zext i8 %stripe1.i.i121 to i16
  %_7.i.i.i.i123 = icmp ult i8 %_98.le, 64
  br i1 %_7.i.i.i.i123, label %panic1.i.i.i.i129, label %panic.i.i.i.i128, !prof !3

panic.i.i.i.i128:                                 ; preds = %bb1.i124.us, %bb1.i124.us.1, %bb1.i124.us.2, %bb1.i124.us.3, %bb1.i124.us.4, %bb1.i124.us.5, %bb1.i124.us.6, %bb1.i124.us.7, %bb1.i124
  %.us-phi = phi i16 [ %_4.i.i.i.i122, %bb1.i124 ], [ %_4.i.i.i, %bb1.i124.us ], [ %_4.i.i.i.i122.us.1, %bb1.i124.us.1 ], [ %_4.i.i.i.i122.us.2, %bb1.i124.us.2 ], [ %_4.i.i.i.i122.us.3, %bb1.i124.us.3 ], [ %_4.i.i.i.i122.us.4, %bb1.i124.us.4 ], [ %_4.i.i.i.i122.us.5, %bb1.i124.us.5 ], [ %_4.i.i.i.i122.us.6, %bb1.i124.us.6 ], [ %_4.i.i.i.i122.us.7, %bb1.i124.us.7 ]
; call core::panicking::panic_bounds_check
  call fastcc addrspace(1) void @_ZN4core9panicking18panic_bounds_check17h763c22f7e6216696E(i16 %.us-phi, i16 8) #13
  unreachable

panic1.i.i.i.i129:                                ; preds = %bb1.i124
; call core::panicking::panic_bounds_check
  call fastcc addrspace(1) void @_ZN4core9panicking18panic_bounds_check17h763c22f7e6216696E(i16 %_8.i.i.i.i125, i16 128) #13
  unreachable

_ZN15worduino_engine11peripherals11Peripherals8or_pixel17hd00019bebb093682E.exit133: ; preds = %bb31.preheader
  %125 = and i8 %self.i.i.i114, 2
  %_101.not.1 = icmp eq i8 %125, 0
  br i1 %_101.not.1, label %_ZN15worduino_engine11peripherals11Peripherals8or_pixel17hd00019bebb093682E.exit133.1, label %bb1.i124

_ZN15worduino_engine11peripherals11Peripherals8or_pixel17hd00019bebb093682E.exit133.1: ; preds = %_ZN15worduino_engine11peripherals11Peripherals8or_pixel17hd00019bebb093682E.exit133
  %126 = and i8 %self.i.i.i114, 4
  %_101.not.2 = icmp eq i8 %126, 0
  br i1 %_101.not.2, label %_ZN15worduino_engine11peripherals11Peripherals8or_pixel17hd00019bebb093682E.exit133.2, label %bb1.i124

_ZN15worduino_engine11peripherals11Peripherals8or_pixel17hd00019bebb093682E.exit133.2: ; preds = %_ZN15worduino_engine11peripherals11Peripherals8or_pixel17hd00019bebb093682E.exit133.1
  %127 = and i8 %self.i.i.i114, 8
  %_101.not.3 = icmp eq i8 %127, 0
  br i1 %_101.not.3, label %_ZN15worduino_engine11peripherals11Peripherals8or_pixel17hd00019bebb093682E.exit133.3, label %bb1.i124

_ZN15worduino_engine11peripherals11Peripherals8or_pixel17hd00019bebb093682E.exit133.3: ; preds = %_ZN15worduino_engine11peripherals11Peripherals8or_pixel17hd00019bebb093682E.exit133.2
  %128 = and i8 %self.i.i.i114, 16
  %_101.not.4 = icmp eq i8 %128, 0
  br i1 %_101.not.4, label %_ZN15worduino_engine11peripherals11Peripherals8or_pixel17hd00019bebb093682E.exit133.4, label %bb1.i124

_ZN15worduino_engine11peripherals11Peripherals8or_pixel17hd00019bebb093682E.exit133.4: ; preds = %_ZN15worduino_engine11peripherals11Peripherals8or_pixel17hd00019bebb093682E.exit133.3
  %129 = and i8 %self.i.i.i114, 32
  %_101.not.5 = icmp eq i8 %129, 0
  br i1 %_101.not.5, label %_ZN15worduino_engine11peripherals11Peripherals8or_pixel17hd00019bebb093682E.exit133.5, label %bb1.i124

_ZN15worduino_engine11peripherals11Peripherals8or_pixel17hd00019bebb093682E.exit133.5: ; preds = %_ZN15worduino_engine11peripherals11Peripherals8or_pixel17hd00019bebb093682E.exit133.4
  %130 = and i8 %self.i.i.i114, 64
  %_101.not.6 = icmp eq i8 %130, 0
  br i1 %_101.not.6, label %_ZN15worduino_engine11peripherals11Peripherals8or_pixel17hd00019bebb093682E.exit133.6, label %bb1.i124

_ZN15worduino_engine11peripherals11Peripherals8or_pixel17hd00019bebb093682E.exit133.6: ; preds = %_ZN15worduino_engine11peripherals11Peripherals8or_pixel17hd00019bebb093682E.exit133.5
  %_101.not.7 = icmp sgt i8 %self.i.i.i114, -1
  br i1 %_101.not.7, label %bb35.loopexit, label %bb1.i124

"_ZN11avr_progmem7wrapper26ProgMem$LT$$u5b$T$u5d$$GT$7load_at17hf0b857a44810d128E.exit143": ; preds = %"_ZN11avr_progmem7wrapper26ProgMem$LT$$u5b$T$u5d$$GT$7load_at17hf0b857a44810d128E.exit143.preheader", %bb18.loopexit
  %iter.sroa.0.0238 = phi i16 [ %131, %bb18.loopexit ], [ 0, %"_ZN11avr_progmem7wrapper26ProgMem$LT$$u5b$T$u5d$$GT$7load_at17hf0b857a44810d128E.exit143.preheader" ]
  %131 = add nuw i16 %iter.sroa.0.0238, 1
  %dx24 = trunc i16 %iter.sroa.0.0238 to i8
  %132 = getelementptr inbounds i8, ptr %0, i16 %iter.sroa.0.0238
  call addrspace(1) void @llvm.lifetime.start.p0(i64 1, ptr nonnull %buffer.i.i.i139)
  %133 = call addrspace(0) { i8, i8, ptr, ptr } asm sideeffect alignstack "\0A\09\09\09\09\09\09// load value from program memory at indirect Z into temp\0A\09\09\09\09\09\09// register $$3 and post-increment Z by one\0A\09\09\09\09\09\09lpm ${1}, Z+\0A\0A\09\09\09\09\09\09// write register $$3 to data memory at indirect X\0A\09\09\09\09\09\09// and post-increment X by one\0A\09\09\09\09\09\09st X+, ${1}\0A\0A\09\09\09\09\09\09// Decrement the loop counter in register $$0 (size_bytes).\0A\09\09\09\09\09\09// If zero has been reached the equality flag is set.\0A\09\09\09\09\09\09subi ${0}, 1\0A\0A\09\09\09\09\09\09// Check whether the end has not been reached and if so jump back.\0A\09\09\09\09\09\09// The end is reached if $$0 (size_bytes) == 0, i.e. equality flag\0A\09\09\09\09\09\09// is set.\0A\09\09\09\09\09\09// Thus if equality flag is NOT set (brNE) jump back by 4\0A\09\09\09\09\09\09// instruction, that are all instructions in this assembly.\0A\09\09\09\09\09\09// Notice: 4 instructions = 8 Byte\0A\09\09\09\09\09\09brne -8\0A\09\09\09\09\09", "=&r,=&r,=&{r31r30},=&{r27r26},0,2,3,~{sreg},~{memory}"(i8 1, ptr %132, ptr nonnull %buffer.i.i.i139) #12, !srcloc !4
  %self.i.i.i142 = load i8, ptr %buffer.i.i.i139, align 1
  call addrspace(1) void @llvm.lifetime.end.p0(i64 1, ptr nonnull %buffer.i.i.i139)
  %_46 = add i8 %dx24, %pos.0
  %_46.fr = freeze i8 %_46
  %_8.i.i.i.i162 = zext i8 %_46.fr to i16
  %_11.i.i.i.i163 = icmp sgt i8 %_46.fr, -1
  %_53.us = and i8 %self.i.i.i142, 1
  %_52.not.us = icmp eq i8 %_53.us, 0
  br i1 %_11.i.i.i.i163, label %bb14.us.preheader, label %bb14.preheader, !prof !3

bb14.preheader:                                   ; preds = %"_ZN11avr_progmem7wrapper26ProgMem$LT$$u5b$T$u5d$$GT$7load_at17hf0b857a44810d128E.exit143"
  br i1 %_52.not.us, label %_ZN15worduino_engine11peripherals11Peripherals8or_pixel17hd00019bebb093682E.exit170, label %bb1.i161

bb14.us.preheader:                                ; preds = %"_ZN11avr_progmem7wrapper26ProgMem$LT$$u5b$T$u5d$$GT$7load_at17hf0b857a44810d128E.exit143"
  br i1 %_52.not.us, label %_ZN15worduino_engine11peripherals11Peripherals8or_pixel17hd00019bebb093682E.exit170.us, label %bb1.i161.us

bb1.i161.us:                                      ; preds = %bb14.us.preheader
  br i1 %_7.i.i.i145, label %bb1.i.i.i.i164.us, label %panic.i.i.i.i165, !prof !3

bb1.i.i.i.i164.us:                                ; preds = %bb1.i161.us
  %134 = getelementptr inbounds [8 x [128 x i8]], ptr %p, i16 0, i16 %_4.i.i.i144, i16 %_8.i.i.i.i162
  %135 = load i8, ptr %134, align 1, !alias.scope !197
  %136 = or i8 %135, %mask.i.i168.us
  store i8 %136, ptr %134, align 1, !alias.scope !206
  br label %_ZN15worduino_engine11peripherals11Peripherals8or_pixel17hd00019bebb093682E.exit170.us

_ZN15worduino_engine11peripherals11Peripherals8or_pixel17hd00019bebb093682E.exit170.us: ; preds = %bb1.i.i.i.i164.us, %bb14.us.preheader
  %137 = and i8 %self.i.i.i142, 2
  %_52.not.us.1 = icmp eq i8 %137, 0
  br i1 %_52.not.us.1, label %_ZN15worduino_engine11peripherals11Peripherals8or_pixel17hd00019bebb093682E.exit170.us.1, label %bb1.i161.us.1

bb1.i161.us.1:                                    ; preds = %_ZN15worduino_engine11peripherals11Peripherals8or_pixel17hd00019bebb093682E.exit170.us
  br i1 %_7.i.i.i.i160.us.1, label %bb1.i.i.i.i164.us.1, label %panic.i.i.i.i165, !prof !3

bb1.i.i.i.i164.us.1:                              ; preds = %bb1.i161.us.1
  %138 = getelementptr inbounds [8 x [128 x i8]], ptr %p, i16 0, i16 %_4.i.i.i.i159.us.1, i16 %_8.i.i.i.i162
  %139 = load i8, ptr %138, align 1, !alias.scope !211
  %140 = or i8 %139, %mask.i.i168.us.1
  store i8 %140, ptr %138, align 1, !alias.scope !216
  br label %_ZN15worduino_engine11peripherals11Peripherals8or_pixel17hd00019bebb093682E.exit170.us.1

_ZN15worduino_engine11peripherals11Peripherals8or_pixel17hd00019bebb093682E.exit170.us.1: ; preds = %bb1.i.i.i.i164.us.1, %_ZN15worduino_engine11peripherals11Peripherals8or_pixel17hd00019bebb093682E.exit170.us
  %141 = and i8 %self.i.i.i142, 4
  %_52.not.us.2 = icmp eq i8 %141, 0
  br i1 %_52.not.us.2, label %_ZN15worduino_engine11peripherals11Peripherals8or_pixel17hd00019bebb093682E.exit170.us.2, label %bb1.i161.us.2

bb1.i161.us.2:                                    ; preds = %_ZN15worduino_engine11peripherals11Peripherals8or_pixel17hd00019bebb093682E.exit170.us.1
  br i1 %_7.i.i.i.i160.us.2, label %bb1.i.i.i.i164.us.2, label %panic.i.i.i.i165, !prof !3

bb1.i.i.i.i164.us.2:                              ; preds = %bb1.i161.us.2
  %142 = getelementptr inbounds [8 x [128 x i8]], ptr %p, i16 0, i16 %_4.i.i.i.i159.us.2, i16 %_8.i.i.i.i162
  %143 = load i8, ptr %142, align 1, !alias.scope !217
  %144 = or i8 %143, %mask.i.i168.us.2
  store i8 %144, ptr %142, align 1, !alias.scope !222
  br label %_ZN15worduino_engine11peripherals11Peripherals8or_pixel17hd00019bebb093682E.exit170.us.2

_ZN15worduino_engine11peripherals11Peripherals8or_pixel17hd00019bebb093682E.exit170.us.2: ; preds = %bb1.i.i.i.i164.us.2, %_ZN15worduino_engine11peripherals11Peripherals8or_pixel17hd00019bebb093682E.exit170.us.1
  %145 = and i8 %self.i.i.i142, 8
  %_52.not.us.3 = icmp eq i8 %145, 0
  br i1 %_52.not.us.3, label %_ZN15worduino_engine11peripherals11Peripherals8or_pixel17hd00019bebb093682E.exit170.us.3, label %bb1.i161.us.3

bb1.i161.us.3:                                    ; preds = %_ZN15worduino_engine11peripherals11Peripherals8or_pixel17hd00019bebb093682E.exit170.us.2
  br i1 %_7.i.i.i.i160.us.3, label %bb1.i.i.i.i164.us.3, label %panic.i.i.i.i165, !prof !3

bb1.i.i.i.i164.us.3:                              ; preds = %bb1.i161.us.3
  %146 = getelementptr inbounds [8 x [128 x i8]], ptr %p, i16 0, i16 %_4.i.i.i.i159.us.3, i16 %_8.i.i.i.i162
  %147 = load i8, ptr %146, align 1, !alias.scope !223
  %148 = or i8 %147, %mask.i.i168.us.3
  store i8 %148, ptr %146, align 1, !alias.scope !228
  br label %_ZN15worduino_engine11peripherals11Peripherals8or_pixel17hd00019bebb093682E.exit170.us.3

_ZN15worduino_engine11peripherals11Peripherals8or_pixel17hd00019bebb093682E.exit170.us.3: ; preds = %bb1.i.i.i.i164.us.3, %_ZN15worduino_engine11peripherals11Peripherals8or_pixel17hd00019bebb093682E.exit170.us.2
  %149 = and i8 %self.i.i.i142, 16
  %_52.not.us.4 = icmp eq i8 %149, 0
  br i1 %_52.not.us.4, label %_ZN15worduino_engine11peripherals11Peripherals8or_pixel17hd00019bebb093682E.exit170.us.4, label %bb1.i161.us.4

bb1.i161.us.4:                                    ; preds = %_ZN15worduino_engine11peripherals11Peripherals8or_pixel17hd00019bebb093682E.exit170.us.3
  br i1 %_7.i.i.i.i160.us.4, label %bb1.i.i.i.i164.us.4, label %panic.i.i.i.i165, !prof !3

bb1.i.i.i.i164.us.4:                              ; preds = %bb1.i161.us.4
  %150 = getelementptr inbounds [8 x [128 x i8]], ptr %p, i16 0, i16 %_4.i.i.i.i159.us.4, i16 %_8.i.i.i.i162
  %151 = load i8, ptr %150, align 1, !alias.scope !229
  %152 = or i8 %151, %mask.i.i168.us.4
  store i8 %152, ptr %150, align 1, !alias.scope !234
  br label %_ZN15worduino_engine11peripherals11Peripherals8or_pixel17hd00019bebb093682E.exit170.us.4

_ZN15worduino_engine11peripherals11Peripherals8or_pixel17hd00019bebb093682E.exit170.us.4: ; preds = %bb1.i.i.i.i164.us.4, %_ZN15worduino_engine11peripherals11Peripherals8or_pixel17hd00019bebb093682E.exit170.us.3
  %153 = and i8 %self.i.i.i142, 32
  %_52.not.us.5 = icmp eq i8 %153, 0
  br i1 %_52.not.us.5, label %_ZN15worduino_engine11peripherals11Peripherals8or_pixel17hd00019bebb093682E.exit170.us.5, label %bb1.i161.us.5

bb1.i161.us.5:                                    ; preds = %_ZN15worduino_engine11peripherals11Peripherals8or_pixel17hd00019bebb093682E.exit170.us.4
  br i1 %_7.i.i.i.i160.us.5, label %bb1.i.i.i.i164.us.5, label %panic.i.i.i.i165, !prof !3

bb1.i.i.i.i164.us.5:                              ; preds = %bb1.i161.us.5
  %154 = getelementptr inbounds [8 x [128 x i8]], ptr %p, i16 0, i16 %_4.i.i.i.i159.us.5, i16 %_8.i.i.i.i162
  %155 = load i8, ptr %154, align 1, !alias.scope !235
  %156 = or i8 %155, %mask.i.i168.us.5
  store i8 %156, ptr %154, align 1, !alias.scope !240
  br label %_ZN15worduino_engine11peripherals11Peripherals8or_pixel17hd00019bebb093682E.exit170.us.5

_ZN15worduino_engine11peripherals11Peripherals8or_pixel17hd00019bebb093682E.exit170.us.5: ; preds = %bb1.i.i.i.i164.us.5, %_ZN15worduino_engine11peripherals11Peripherals8or_pixel17hd00019bebb093682E.exit170.us.4
  %157 = and i8 %self.i.i.i142, 64
  %_52.not.us.6 = icmp eq i8 %157, 0
  br i1 %_52.not.us.6, label %_ZN15worduino_engine11peripherals11Peripherals8or_pixel17hd00019bebb093682E.exit170.us.6, label %bb1.i161.us.6

bb1.i161.us.6:                                    ; preds = %_ZN15worduino_engine11peripherals11Peripherals8or_pixel17hd00019bebb093682E.exit170.us.5
  br i1 %_7.i.i.i.i160.us.6, label %bb1.i.i.i.i164.us.6, label %panic.i.i.i.i165, !prof !3

bb1.i.i.i.i164.us.6:                              ; preds = %bb1.i161.us.6
  %158 = getelementptr inbounds [8 x [128 x i8]], ptr %p, i16 0, i16 %_4.i.i.i.i159.us.6, i16 %_8.i.i.i.i162
  %159 = load i8, ptr %158, align 1, !alias.scope !241
  %160 = or i8 %159, %mask.i.i168.us.6
  store i8 %160, ptr %158, align 1, !alias.scope !246
  br label %_ZN15worduino_engine11peripherals11Peripherals8or_pixel17hd00019bebb093682E.exit170.us.6

_ZN15worduino_engine11peripherals11Peripherals8or_pixel17hd00019bebb093682E.exit170.us.6: ; preds = %bb1.i.i.i.i164.us.6, %_ZN15worduino_engine11peripherals11Peripherals8or_pixel17hd00019bebb093682E.exit170.us.5
  %_52.not.us.7 = icmp sgt i8 %self.i.i.i142, -1
  br i1 %_52.not.us.7, label %bb18.loopexit, label %bb1.i161.us.7

bb1.i161.us.7:                                    ; preds = %_ZN15worduino_engine11peripherals11Peripherals8or_pixel17hd00019bebb093682E.exit170.us.6
  br i1 %_7.i.i.i.i160.us.7, label %bb1.i.i.i.i164.us.7, label %panic.i.i.i.i165, !prof !3

bb1.i.i.i.i164.us.7:                              ; preds = %bb1.i161.us.7
  %161 = getelementptr inbounds [8 x [128 x i8]], ptr %p, i16 0, i16 %_4.i.i.i.i159.us.7, i16 %_8.i.i.i.i162
  %162 = load i8, ptr %161, align 1, !alias.scope !247
  %163 = or i8 %162, %mask.i.i168.us.7
  store i8 %163, ptr %161, align 1, !alias.scope !252
  br label %bb18.loopexit

panic1.i.i.i150:                                  ; preds = %"_ZN11avr_progmem7wrapper26ProgMem$LT$$u5b$T$u5d$$GT$7load_at17hf0b857a44810d128E.exit143.us.us"
; call core::panicking::panic_bounds_check
  call fastcc addrspace(1) void @_ZN4core9panicking18panic_bounds_check17h763c22f7e6216696E(i16 %_8.i.i.i146.us.us, i16 128) #13
  unreachable

bb18.loopexit:                                    ; preds = %_ZN15worduino_engine11peripherals11Peripherals8or_pixel17hd00019bebb093682E.exit170.6, %_ZN15worduino_engine11peripherals11Peripherals8or_pixel17hd00019bebb093682E.exit170.us.6, %bb1.i.i.i.i164.us.7
  %164 = icmp ult i16 %131, %1
  br i1 %164, label %"_ZN11avr_progmem7wrapper26ProgMem$LT$$u5b$T$u5d$$GT$7load_at17hf0b857a44810d128E.exit143", label %bb60

bb1.i161:                                         ; preds = %_ZN15worduino_engine11peripherals11Peripherals8or_pixel17hd00019bebb093682E.exit170.6, %_ZN15worduino_engine11peripherals11Peripherals8or_pixel17hd00019bebb093682E.exit170.5, %_ZN15worduino_engine11peripherals11Peripherals8or_pixel17hd00019bebb093682E.exit170.4, %_ZN15worduino_engine11peripherals11Peripherals8or_pixel17hd00019bebb093682E.exit170.3, %_ZN15worduino_engine11peripherals11Peripherals8or_pixel17hd00019bebb093682E.exit170.2, %_ZN15worduino_engine11peripherals11Peripherals8or_pixel17hd00019bebb093682E.exit170.1, %_ZN15worduino_engine11peripherals11Peripherals8or_pixel17hd00019bebb093682E.exit170, %bb14.preheader
  %iter2.sroa.0.0232.lcssa = phi i8 [ 0, %bb14.preheader ], [ 7, %_ZN15worduino_engine11peripherals11Peripherals8or_pixel17hd00019bebb093682E.exit170.6 ], [ 6, %_ZN15worduino_engine11peripherals11Peripherals8or_pixel17hd00019bebb093682E.exit170.5 ], [ 5, %_ZN15worduino_engine11peripherals11Peripherals8or_pixel17hd00019bebb093682E.exit170.4 ], [ 4, %_ZN15worduino_engine11peripherals11Peripherals8or_pixel17hd00019bebb093682E.exit170.3 ], [ 3, %_ZN15worduino_engine11peripherals11Peripherals8or_pixel17hd00019bebb093682E.exit170.2 ], [ 2, %_ZN15worduino_engine11peripherals11Peripherals8or_pixel17hd00019bebb093682E.exit170.1 ], [ 1, %_ZN15worduino_engine11peripherals11Peripherals8or_pixel17hd00019bebb093682E.exit170 ]
  %_49.le = add i8 %iter2.sroa.0.0232.lcssa, %pos.1.fr
  %stripe1.i.i158 = lshr i8 %_49.le, 3
  %_4.i.i.i.i159 = zext i8 %stripe1.i.i158 to i16
  %_7.i.i.i.i160 = icmp ult i8 %_49.le, 64
  br i1 %_7.i.i.i.i160, label %panic1.i.i.i.i166, label %panic.i.i.i.i165, !prof !3

panic.i.i.i.i165:                                 ; preds = %bb1.i161.us, %bb1.i161.us.1, %bb1.i161.us.2, %bb1.i161.us.3, %bb1.i161.us.4, %bb1.i161.us.5, %bb1.i161.us.6, %bb1.i161.us.7, %bb1.i161
  %.us-phi234 = phi i16 [ %_4.i.i.i.i159, %bb1.i161 ], [ %_4.i.i.i144, %bb1.i161.us ], [ %_4.i.i.i.i159.us.1, %bb1.i161.us.1 ], [ %_4.i.i.i.i159.us.2, %bb1.i161.us.2 ], [ %_4.i.i.i.i159.us.3, %bb1.i161.us.3 ], [ %_4.i.i.i.i159.us.4, %bb1.i161.us.4 ], [ %_4.i.i.i.i159.us.5, %bb1.i161.us.5 ], [ %_4.i.i.i.i159.us.6, %bb1.i161.us.6 ], [ %_4.i.i.i.i159.us.7, %bb1.i161.us.7 ]
; call core::panicking::panic_bounds_check
  call fastcc addrspace(1) void @_ZN4core9panicking18panic_bounds_check17h763c22f7e6216696E(i16 %.us-phi234, i16 8) #13
  unreachable

panic1.i.i.i.i166:                                ; preds = %bb1.i161
; call core::panicking::panic_bounds_check
  call fastcc addrspace(1) void @_ZN4core9panicking18panic_bounds_check17h763c22f7e6216696E(i16 %_8.i.i.i.i162, i16 128) #13
  unreachable

_ZN15worduino_engine11peripherals11Peripherals8or_pixel17hd00019bebb093682E.exit170: ; preds = %bb14.preheader
  %165 = and i8 %self.i.i.i142, 2
  %_52.not.1 = icmp eq i8 %165, 0
  br i1 %_52.not.1, label %_ZN15worduino_engine11peripherals11Peripherals8or_pixel17hd00019bebb093682E.exit170.1, label %bb1.i161

_ZN15worduino_engine11peripherals11Peripherals8or_pixel17hd00019bebb093682E.exit170.1: ; preds = %_ZN15worduino_engine11peripherals11Peripherals8or_pixel17hd00019bebb093682E.exit170
  %166 = and i8 %self.i.i.i142, 4
  %_52.not.2 = icmp eq i8 %166, 0
  br i1 %_52.not.2, label %_ZN15worduino_engine11peripherals11Peripherals8or_pixel17hd00019bebb093682E.exit170.2, label %bb1.i161

_ZN15worduino_engine11peripherals11Peripherals8or_pixel17hd00019bebb093682E.exit170.2: ; preds = %_ZN15worduino_engine11peripherals11Peripherals8or_pixel17hd00019bebb093682E.exit170.1
  %167 = and i8 %self.i.i.i142, 8
  %_52.not.3 = icmp eq i8 %167, 0
  br i1 %_52.not.3, label %_ZN15worduino_engine11peripherals11Peripherals8or_pixel17hd00019bebb093682E.exit170.3, label %bb1.i161

_ZN15worduino_engine11peripherals11Peripherals8or_pixel17hd00019bebb093682E.exit170.3: ; preds = %_ZN15worduino_engine11peripherals11Peripherals8or_pixel17hd00019bebb093682E.exit170.2
  %168 = and i8 %self.i.i.i142, 16
  %_52.not.4 = icmp eq i8 %168, 0
  br i1 %_52.not.4, label %_ZN15worduino_engine11peripherals11Peripherals8or_pixel17hd00019bebb093682E.exit170.4, label %bb1.i161

_ZN15worduino_engine11peripherals11Peripherals8or_pixel17hd00019bebb093682E.exit170.4: ; preds = %_ZN15worduino_engine11peripherals11Peripherals8or_pixel17hd00019bebb093682E.exit170.3
  %169 = and i8 %self.i.i.i142, 32
  %_52.not.5 = icmp eq i8 %169, 0
  br i1 %_52.not.5, label %_ZN15worduino_engine11peripherals11Peripherals8or_pixel17hd00019bebb093682E.exit170.5, label %bb1.i161

_ZN15worduino_engine11peripherals11Peripherals8or_pixel17hd00019bebb093682E.exit170.5: ; preds = %_ZN15worduino_engine11peripherals11Peripherals8or_pixel17hd00019bebb093682E.exit170.4
  %170 = and i8 %self.i.i.i142, 64
  %_52.not.6 = icmp eq i8 %170, 0
  br i1 %_52.not.6, label %_ZN15worduino_engine11peripherals11Peripherals8or_pixel17hd00019bebb093682E.exit170.6, label %bb1.i161

_ZN15worduino_engine11peripherals11Peripherals8or_pixel17hd00019bebb093682E.exit170.6: ; preds = %_ZN15worduino_engine11peripherals11Peripherals8or_pixel17hd00019bebb093682E.exit170.5
  %_52.not.7 = icmp sgt i8 %self.i.i.i142, -1
  br i1 %_52.not.7, label %bb18.loopexit, label %bb1.i161
}

; worduino_engine::draw::draw_vertical_door
; Function Attrs: nofree nosync nounwind uwtable
define internal fastcc void @_ZN15worduino_engine4draw18draw_vertical_door17h21ffec8321d4a0feE(ptr noalias nocapture noundef align 1 dereferenceable(1024) %p, i8 %x, i8 %y1, i8 %y2, i1 noundef zeroext %state) unnamed_addr addrspace(1) #1 personality ptr addrspace(1) @rust_eh_personality {
start:
  %iter.sroa.5 = alloca i8, align 1
  %x.fr = freeze i8 %x
  %0 = add i8 %y1, 7
  %1 = and i8 %0, -8
  %2 = tail call addrspace(1) i8 @llvm.umin.i8(i8 %y2, i8 %1)
  %3 = and i8 %y2, -8
  %4 = tail call addrspace(1) i8 @llvm.umax.i8(i8 %y1, i8 %3)
  %_18 = add i8 %y2, 1
  call addrspace(1) void @llvm.lifetime.start.p0(i64 1, ptr nonnull %iter.sroa.5)
  store i8 %y1, ptr %iter.sroa.5, align 1
  %_8.i.i.i = zext i8 %x.fr to i16
  %_11.i.i.i = icmp sgt i8 %x.fr, -1
  %_38 = add i8 %x.fr, 1
  %_8.i.i.i17 = zext i8 %_38 to i16
  br i1 %_11.i.i.i, label %start.split.us, label %bb3.i, !prof !3

start.split.us:                                   ; preds = %start
  %_11.i.i.i18 = icmp sgt i8 %_38, -1
  br i1 %_11.i.i.i18, label %bb3.us.us, label %bb3.i.us, !prof !3

bb3.us.us:                                        ; preds = %start.split.us, %bb1.i.i.i.us.us
  %self.val.i.i.i.i1083.us.us = phi i8 [ %self.val.i.i.i.i1082.us.us, %bb1.i.i.i.us.us ], [ %4, %start.split.us ]
  %iter.sroa.0.0.us.us = phi i8 [ %iter.sroa.0.15763.us.us, %bb1.i.i.i.us.us ], [ 1, %start.split.us ]
  %trunc.not.i.us.us = icmp eq i8 %iter.sroa.0.0.us.us, 0
  %_8.0.i.us.us = select i1 %trunc.not.i.us.us, ptr null, ptr %iter.sroa.5
  br i1 %trunc.not.i.us.us, label %bb3.i.i.us.us, label %bb3.i.us.us

bb3.i.us.us:                                      ; preds = %bb3.us.us
  %self.val.i.i.i.i.us.us = load i8, ptr %_8.0.i.us.us, align 1, !alias.scope !253
  %5 = icmp ult i8 %self.val.i.i.i.i.us.us, %2
  br i1 %5, label %"_ZN4core6option15Option$LT$T$GT$7or_else17h27f17428c2c797feE.exit.thread.us.us", label %bb3.i.i.us.us

"_ZN4core6option15Option$LT$T$GT$7or_else17h27f17428c2c797feE.exit.thread.us.us": ; preds = %bb3.i.us.us
  %6 = add nuw i8 %self.val.i.i.i.i.us.us, 1
  store i8 %6, ptr %_8.0.i.us.us, align 1, !alias.scope !262
  br label %bb4.us.us

bb3.i.i.us.us:                                    ; preds = %bb3.i.us.us, %bb3.us.us
  %7 = icmp ult i8 %self.val.i.i.i.i1083.us.us, %_18
  br i1 %7, label %"_ZN4core6option15Option$LT$T$GT$7or_else17h27f17428c2c797feE.exit.us.us", label %bb6

"_ZN4core6option15Option$LT$T$GT$7or_else17h27f17428c2c797feE.exit.us.us": ; preds = %bb3.i.i.us.us
  %8 = add nuw i8 %self.val.i.i.i.i1083.us.us, 1
  br label %bb4.us.us

bb4.us.us:                                        ; preds = %"_ZN4core6option15Option$LT$T$GT$7or_else17h27f17428c2c797feE.exit.us.us", %"_ZN4core6option15Option$LT$T$GT$7or_else17h27f17428c2c797feE.exit.thread.us.us"
  %self.val.i.i.i.i1082.us.us = phi i8 [ %self.val.i.i.i.i1083.us.us, %"_ZN4core6option15Option$LT$T$GT$7or_else17h27f17428c2c797feE.exit.thread.us.us" ], [ %8, %"_ZN4core6option15Option$LT$T$GT$7or_else17h27f17428c2c797feE.exit.us.us" ]
  %.sroa.3.0.i1364.us.us = phi i8 [ %self.val.i.i.i.i.us.us, %"_ZN4core6option15Option$LT$T$GT$7or_else17h27f17428c2c797feE.exit.thread.us.us" ], [ %self.val.i.i.i.i1083.us.us, %"_ZN4core6option15Option$LT$T$GT$7or_else17h27f17428c2c797feE.exit.us.us" ]
  %iter.sroa.0.15763.us.us = phi i8 [ 1, %"_ZN4core6option15Option$LT$T$GT$7or_else17h27f17428c2c797feE.exit.thread.us.us" ], [ 0, %"_ZN4core6option15Option$LT$T$GT$7or_else17h27f17428c2c797feE.exit.us.us" ]
  %stripe1.i.us.us = lshr i8 %.sroa.3.0.i1364.us.us, 3
  %_4.i.i.i.us.us = zext i8 %stripe1.i.us.us to i16
  %_7.i.i.i.us.us = icmp ult i8 %.sroa.3.0.i1364.us.us, 64
  br i1 %_7.i.i.i.us.us, label %bb1.i.i.i.us.us, label %panic.i.i.i, !prof !3

bb1.i.i.i.us.us:                                  ; preds = %bb4.us.us
  %_27.us.us = and i8 %.sroa.3.0.i1364.us.us, 1
  %parity.us.us = icmp eq i8 %_27.us.us, 0
  %9 = xor i1 %parity.us.us, %state
  %offset.i.us.us = and i8 %.sroa.3.0.i1364.us.us, 7
  %10 = getelementptr inbounds [8 x [128 x i8]], ptr %p, i16 0, i16 %_4.i.i.i.us.us, i16 %_8.i.i.i
  %11 = load i8, ptr %10, align 1, !alias.scope !265
  %mask.i.us.us = shl nuw i8 1, %offset.i.us.us
  %12 = or i8 %11, %mask.i.us.us
  %_22.i.us.us = xor i8 %mask.i.us.us, -1
  %13 = and i8 %11, %_22.i.us.us
  %new.0.i.us.us = select i1 %9, i8 %13, i8 %12
  store i8 %new.0.i.us.us, ptr %10, align 1, !alias.scope !272
  %14 = getelementptr inbounds [8 x [128 x i8]], ptr %p, i16 0, i16 %_4.i.i.i.us.us, i16 %_8.i.i.i17
  %15 = load i8, ptr %14, align 1, !alias.scope !277
  %16 = or i8 %15, %mask.i.us.us
  %17 = and i8 %15, %_22.i.us.us
  %new.0.i25.us.us = select i1 %9, i8 %16, i8 %17
  store i8 %new.0.i25.us.us, ptr %14, align 1, !alias.scope !284
  br label %bb3.us.us

bb3.i.us:                                         ; preds = %start.split.us
  %18 = icmp ugt i8 %2, %y1
  br i1 %18, label %"_ZN4core6option15Option$LT$T$GT$7or_else17h27f17428c2c797feE.exit.thread.us", label %bb3.i.i.us

"_ZN4core6option15Option$LT$T$GT$7or_else17h27f17428c2c797feE.exit.thread.us": ; preds = %bb3.i.us
  %19 = add nuw i8 %y1, 1
  store i8 %19, ptr %iter.sroa.5, align 1, !alias.scope !262
  br label %bb1.i.i.i.us

bb3.i.i.us:                                       ; preds = %bb3.i.us
  %20 = icmp ult i8 %4, %_18
  br i1 %20, label %bb1.i.i.i.us, label %bb6

bb1.i.i.i.us:                                     ; preds = %"_ZN4core6option15Option$LT$T$GT$7or_else17h27f17428c2c797feE.exit.thread.us", %bb3.i.i.us
  %.sroa.3.0.i1364.us = phi i8 [ %y1, %"_ZN4core6option15Option$LT$T$GT$7or_else17h27f17428c2c797feE.exit.thread.us" ], [ %4, %bb3.i.i.us ]
  %stripe1.i.us = lshr i8 %.sroa.3.0.i1364.us, 3
  %_4.i.i.i.us = zext i8 %stripe1.i.us to i16
  %_27.us = and i8 %.sroa.3.0.i1364.us, 1
  %parity.us = icmp eq i8 %_27.us, 0
  %21 = xor i1 %parity.us, %state
  %offset.i.us = and i8 %.sroa.3.0.i1364.us, 7
  %22 = getelementptr inbounds [8 x [128 x i8]], ptr %p, i16 0, i16 %_4.i.i.i.us, i16 %_8.i.i.i
  %23 = load i8, ptr %22, align 1, !alias.scope !265
  %mask.i.us = shl nuw i8 1, %offset.i.us
  %24 = or i8 %23, %mask.i.us
  %_22.i.us = xor i8 %mask.i.us, -1
  %25 = and i8 %23, %_22.i.us
  %new.0.i.us = select i1 %21, i8 %25, i8 %24
  store i8 %new.0.i.us, ptr %22, align 1, !alias.scope !272
; call core::panicking::panic_bounds_check
  tail call fastcc addrspace(1) void @_ZN4core9panicking18panic_bounds_check17h763c22f7e6216696E(i16 %_8.i.i.i17, i16 128) #13
  unreachable

bb3.i:                                            ; preds = %start
  %26 = icmp ugt i8 %2, %y1
  br i1 %26, label %"_ZN4core6option15Option$LT$T$GT$7or_else17h27f17428c2c797feE.exit.thread", label %bb3.i.i

"_ZN4core6option15Option$LT$T$GT$7or_else17h27f17428c2c797feE.exit.thread": ; preds = %bb3.i
  %27 = add nuw i8 %y1, 1
  store i8 %27, ptr %iter.sroa.5, align 1, !alias.scope !262
  br label %panic1.i.i.i

bb3.i.i:                                          ; preds = %bb3.i
  %28 = icmp ult i8 %4, %_18
  br i1 %28, label %panic1.i.i.i, label %bb6

bb6:                                              ; preds = %bb3.i.i.us.us, %bb3.i.i, %bb3.i.i.us
  call addrspace(1) void @llvm.lifetime.end.p0(i64 1, ptr nonnull %iter.sroa.5)
  %_485 = lshr i8 %2, 3
  %_506 = lshr i8 %4, 3
  %29 = icmp ult i8 %_485, %_506
  br i1 %29, label %bb10.lr.ph, label %bb12

bb10.lr.ph:                                       ; preds = %bb6
  %_13.i.i39 = icmp sgt i8 %_38, -1
  br i1 %state, label %bb10.lr.ph.split.us, label %bb10.lr.ph.split

bb10.lr.ph.split.us:                              ; preds = %bb10.lr.ph
  br i1 %_11.i.i.i, label %bb10.lr.ph.split.us.split.us, label %bb10.us, !prof !3

bb10.lr.ph.split.us.split.us:                     ; preds = %bb10.lr.ph.split.us
  br i1 %_13.i.i39, label %bb10.us.us.us.preheader, label %bb10.us.us, !prof !3

bb10.us.us.us.preheader:                          ; preds = %bb10.lr.ph.split.us.split.us
  %umax109 = tail call addrspace(1) i8 @llvm.umax.i8(i8 %_485, i8 8)
  br label %bb10.us.us.us

bb10.us.us.us:                                    ; preds = %bb10.us.us.us.preheader, %bb1.i.i32.us.us.us
  %iter2.sroa.0.093.us.us.us = phi i8 [ %30, %bb1.i.i32.us.us.us ], [ %_485, %bb10.us.us.us.preheader ]
  %_6.i.i28.us.us.us = zext i8 %iter2.sroa.0.093.us.us.us to i16
  %exitcond110.not = icmp eq i8 %iter2.sroa.0.093.us.us.us, %umax109
  br i1 %exitcond110.not, label %panic.i.i33, label %bb1.i.i32.us.us.us, !prof !289

bb1.i.i32.us.us.us:                               ; preds = %bb10.us.us.us
  %30 = add nuw nsw i8 %iter2.sroa.0.093.us.us.us, 1
  %31 = getelementptr inbounds [8 x [128 x i8]], ptr %p, i16 0, i16 %_6.i.i28.us.us.us, i16 %_8.i.i.i
  store i8 85, ptr %31, align 1, !alias.scope !290
  %32 = getelementptr inbounds [8 x [128 x i8]], ptr %p, i16 0, i16 %_6.i.i28.us.us.us, i16 %_8.i.i.i17
  store i8 -86, ptr %32, align 1, !alias.scope !295
  %exitcond111.not = icmp eq i8 %30, %_506
  br i1 %exitcond111.not, label %bb12, label %bb10.us.us.us

bb10.us.us:                                       ; preds = %bb10.lr.ph.split.us.split.us
  %_6.i.i28.us.us = zext i8 %_485 to i16
  %_9.i.i29.us.us = icmp ult i8 %2, 64
  br i1 %_9.i.i29.us.us, label %bb1.i.i32.us.us, label %panic.i.i33, !prof !3

bb1.i.i32.us.us:                                  ; preds = %bb10.us.us
  %33 = getelementptr inbounds [8 x [128 x i8]], ptr %p, i16 0, i16 %_6.i.i28.us.us, i16 %_8.i.i.i
  store i8 85, ptr %33, align 1, !alias.scope !290
; call core::panicking::panic_bounds_check
  tail call fastcc addrspace(1) void @_ZN4core9panicking18panic_bounds_check17h763c22f7e6216696E(i16 %_8.i.i.i17, i16 128) #13
  unreachable

bb10.us:                                          ; preds = %bb10.lr.ph.split.us
  %_6.i.i28.us = zext i8 %_485 to i16
  %_9.i.i29.us = icmp ult i8 %2, 64
  br i1 %_9.i.i29.us, label %panic1.i.i34, label %panic.i.i33, !prof !3

bb10.lr.ph.split:                                 ; preds = %bb10.lr.ph
  br i1 %_11.i.i.i, label %bb10.lr.ph.split.split.us, label %bb10, !prof !3

bb10.lr.ph.split.split.us:                        ; preds = %bb10.lr.ph.split
  br i1 %_13.i.i39, label %bb10.us97.us.preheader, label %bb10.us97, !prof !3

bb10.us97.us.preheader:                           ; preds = %bb10.lr.ph.split.split.us
  %umax = tail call addrspace(1) i8 @llvm.umax.i8(i8 %_485, i8 8)
  br label %bb10.us97.us

bb10.us97.us:                                     ; preds = %bb10.us97.us.preheader, %bb1.i.i.us.us
  %iter2.sroa.0.093.us98.us = phi i8 [ %34, %bb1.i.i.us.us ], [ %_485, %bb10.us97.us.preheader ]
  %_6.i.i.us.us = zext i8 %iter2.sroa.0.093.us98.us to i16
  %exitcond.not = icmp eq i8 %iter2.sroa.0.093.us98.us, %umax
  br i1 %exitcond.not, label %panic.i.i, label %bb1.i.i.us.us, !prof !289

bb1.i.i.us.us:                                    ; preds = %bb10.us97.us
  %34 = add nuw nsw i8 %iter2.sroa.0.093.us98.us, 1
  %35 = getelementptr inbounds [8 x [128 x i8]], ptr %p, i16 0, i16 %_6.i.i.us.us, i16 %_8.i.i.i
  store i8 -86, ptr %35, align 1, !alias.scope !300
  %36 = getelementptr inbounds [8 x [128 x i8]], ptr %p, i16 0, i16 %_6.i.i.us.us, i16 %_8.i.i.i17
  store i8 85, ptr %36, align 1, !alias.scope !305
  %exitcond108.not = icmp eq i8 %34, %_506
  br i1 %exitcond108.not, label %bb12, label %bb10.us97.us

bb10.us97:                                        ; preds = %bb10.lr.ph.split.split.us
  %_6.i.i.us = zext i8 %_485 to i16
  %_9.i.i.us = icmp ult i8 %2, 64
  br i1 %_9.i.i.us, label %bb1.i.i.us, label %panic.i.i, !prof !3

bb1.i.i.us:                                       ; preds = %bb10.us97
  %37 = getelementptr inbounds [8 x [128 x i8]], ptr %p, i16 0, i16 %_6.i.i.us, i16 %_8.i.i.i
  store i8 -86, ptr %37, align 1, !alias.scope !300
; call core::panicking::panic_bounds_check
  tail call fastcc addrspace(1) void @_ZN4core9panicking18panic_bounds_check17h763c22f7e6216696E(i16 %_8.i.i.i17, i16 128) #13
  unreachable

panic.i.i.i:                                      ; preds = %bb4.us.us
; call core::panicking::panic_bounds_check
  tail call fastcc addrspace(1) void @_ZN4core9panicking18panic_bounds_check17h763c22f7e6216696E(i16 %_4.i.i.i.us.us, i16 8) #13
  unreachable

panic1.i.i.i:                                     ; preds = %"_ZN4core6option15Option$LT$T$GT$7or_else17h27f17428c2c797feE.exit.thread", %bb3.i.i
; call core::panicking::panic_bounds_check
  tail call fastcc addrspace(1) void @_ZN4core9panicking18panic_bounds_check17h763c22f7e6216696E(i16 %_8.i.i.i, i16 128) #13
  unreachable

bb12:                                             ; preds = %bb1.i.i.us.us, %bb1.i.i32.us.us.us, %bb6
  ret void

bb10:                                             ; preds = %bb10.lr.ph.split
  %_6.i.i = zext i8 %_485 to i16
  %_9.i.i = icmp ult i8 %2, 64
  br i1 %_9.i.i, label %panic1.i.i, label %panic.i.i, !prof !3

panic.i.i:                                        ; preds = %bb10.us97.us, %bb10, %bb10.us97
  %.us-phi99 = phi i16 [ %_6.i.i.us, %bb10.us97 ], [ %_6.i.i, %bb10 ], [ %_6.i.i.us.us, %bb10.us97.us ]
; call core::panicking::panic_bounds_check
  tail call fastcc addrspace(1) void @_ZN4core9panicking18panic_bounds_check17h763c22f7e6216696E(i16 %.us-phi99, i16 8) #13
  unreachable

panic1.i.i:                                       ; preds = %bb10
; call core::panicking::panic_bounds_check
  tail call fastcc addrspace(1) void @_ZN4core9panicking18panic_bounds_check17h763c22f7e6216696E(i16 %_8.i.i.i, i16 128) #13
  unreachable

panic.i.i33:                                      ; preds = %bb10.us.us.us, %bb10.us.us, %bb10.us
  %.us-phi102 = phi i16 [ %_6.i.i28.us.us, %bb10.us.us ], [ %_6.i.i28.us, %bb10.us ], [ %_6.i.i28.us.us.us, %bb10.us.us.us ]
; call core::panicking::panic_bounds_check
  tail call fastcc addrspace(1) void @_ZN4core9panicking18panic_bounds_check17h763c22f7e6216696E(i16 %.us-phi102, i16 8) #13
  unreachable

panic1.i.i34:                                     ; preds = %bb10.us
; call core::panicking::panic_bounds_check
  tail call fastcc addrspace(1) void @_ZN4core9panicking18panic_bounds_check17h763c22f7e6216696E(i16 %_8.i.i.i, i16 128) #13
  unreachable
}

; worduino_engine::draw::draw_vertical_line
; Function Attrs: nofree nosync nounwind uwtable
define internal fastcc void @_ZN15worduino_engine4draw18draw_vertical_line17h6b256f8c00e14efbE(ptr noalias nocapture noundef align 1 dereferenceable(1024) %p, i8 %x, i8 %y1, i8 %y2, i1 noundef zeroext %val) unnamed_addr addrspace(1) #1 personality ptr addrspace(1) @rust_eh_personality {
start:
  %iter.sroa.5 = alloca i8, align 1
  %x.fr = freeze i8 %x
  %0 = add i8 %y1, 7
  %1 = and i8 %0, -8
  %2 = tail call addrspace(1) i8 @llvm.umin.i8(i8 %y2, i8 %1)
  %3 = and i8 %y2, -8
  %4 = tail call addrspace(1) i8 @llvm.umax.i8(i8 %y1, i8 %3)
  %_18 = add i8 %y2, 1
  call addrspace(1) void @llvm.lifetime.start.p0(i64 1, ptr nonnull %iter.sroa.5)
  store i8 %y1, ptr %iter.sroa.5, align 1
  %_8.i.i.i = zext i8 %x.fr to i16
  %_11.i.i.i = icmp sgt i8 %x.fr, -1
  br i1 %_11.i.i.i, label %bb3.us, label %bb3.i, !prof !3

bb3.us:                                           ; preds = %start, %bb1.i.i.i.us
  %self.val.i.i.i.i1046.us = phi i8 [ %self.val.i.i.i.i1045.us, %bb1.i.i.i.us ], [ %4, %start ]
  %iter.sroa.0.0.us = phi i8 [ %iter.sroa.0.12834.us, %bb1.i.i.i.us ], [ 1, %start ]
  %trunc.not.i.us = icmp eq i8 %iter.sroa.0.0.us, 0
  %_8.0.i.us = select i1 %trunc.not.i.us, ptr null, ptr %iter.sroa.5
  br i1 %trunc.not.i.us, label %bb3.i.i.us, label %bb3.i.us

bb3.i.us:                                         ; preds = %bb3.us
  %self.val.i.i.i.i.us = load i8, ptr %_8.0.i.us, align 1, !alias.scope !310
  %5 = icmp ult i8 %self.val.i.i.i.i.us, %2
  br i1 %5, label %"_ZN4core6option15Option$LT$T$GT$7or_else17h27f17428c2c797feE.exit.thread.us", label %bb3.i.i.us

"_ZN4core6option15Option$LT$T$GT$7or_else17h27f17428c2c797feE.exit.thread.us": ; preds = %bb3.i.us
  %6 = add nuw i8 %self.val.i.i.i.i.us, 1
  store i8 %6, ptr %_8.0.i.us, align 1, !alias.scope !319
  br label %bb4.us

bb3.i.i.us:                                       ; preds = %bb3.i.us, %bb3.us
  %7 = icmp ult i8 %self.val.i.i.i.i1046.us, %_18
  br i1 %7, label %"_ZN4core6option15Option$LT$T$GT$7or_else17h27f17428c2c797feE.exit.us", label %bb6

"_ZN4core6option15Option$LT$T$GT$7or_else17h27f17428c2c797feE.exit.us": ; preds = %bb3.i.i.us
  %8 = add nuw i8 %self.val.i.i.i.i1046.us, 1
  br label %bb4.us

bb4.us:                                           ; preds = %"_ZN4core6option15Option$LT$T$GT$7or_else17h27f17428c2c797feE.exit.us", %"_ZN4core6option15Option$LT$T$GT$7or_else17h27f17428c2c797feE.exit.thread.us"
  %self.val.i.i.i.i1045.us = phi i8 [ %self.val.i.i.i.i1046.us, %"_ZN4core6option15Option$LT$T$GT$7or_else17h27f17428c2c797feE.exit.thread.us" ], [ %8, %"_ZN4core6option15Option$LT$T$GT$7or_else17h27f17428c2c797feE.exit.us" ]
  %.sroa.3.0.i1335.us = phi i8 [ %self.val.i.i.i.i.us, %"_ZN4core6option15Option$LT$T$GT$7or_else17h27f17428c2c797feE.exit.thread.us" ], [ %self.val.i.i.i.i1046.us, %"_ZN4core6option15Option$LT$T$GT$7or_else17h27f17428c2c797feE.exit.us" ]
  %iter.sroa.0.12834.us = phi i8 [ 1, %"_ZN4core6option15Option$LT$T$GT$7or_else17h27f17428c2c797feE.exit.thread.us" ], [ 0, %"_ZN4core6option15Option$LT$T$GT$7or_else17h27f17428c2c797feE.exit.us" ]
  %stripe1.i.us = lshr i8 %.sroa.3.0.i1335.us, 3
  %_4.i.i.i.us = zext i8 %stripe1.i.us to i16
  %_7.i.i.i.us = icmp ult i8 %.sroa.3.0.i1335.us, 64
  br i1 %_7.i.i.i.us, label %bb1.i.i.i.us, label %panic.i.i.i, !prof !3

bb1.i.i.i.us:                                     ; preds = %bb4.us
  %offset.i.us = and i8 %.sroa.3.0.i1335.us, 7
  %9 = getelementptr inbounds [8 x [128 x i8]], ptr %p, i16 0, i16 %_4.i.i.i.us, i16 %_8.i.i.i
  %10 = load i8, ptr %9, align 1, !alias.scope !322
  %mask.i.us = shl nuw i8 1, %offset.i.us
  %11 = or i8 %10, %mask.i.us
  %_22.i.us = xor i8 %mask.i.us, -1
  %12 = and i8 %10, %_22.i.us
  %new.0.i.us = select i1 %val, i8 %11, i8 %12
  store i8 %new.0.i.us, ptr %9, align 1, !alias.scope !329
  br label %bb3.us

bb3.i:                                            ; preds = %start
  %13 = icmp ugt i8 %2, %y1
  br i1 %13, label %"_ZN4core6option15Option$LT$T$GT$7or_else17h27f17428c2c797feE.exit.thread", label %bb3.i.i

"_ZN4core6option15Option$LT$T$GT$7or_else17h27f17428c2c797feE.exit.thread": ; preds = %bb3.i
  %14 = add nuw i8 %y1, 1
  store i8 %14, ptr %iter.sroa.5, align 1, !alias.scope !319
  br label %panic1.i.i.i

bb3.i.i:                                          ; preds = %bb3.i
  %15 = icmp ult i8 %4, %_18
  br i1 %15, label %panic1.i.i.i, label %bb6

bb6:                                              ; preds = %bb3.i.i.us, %bb3.i.i
  call addrspace(1) void @llvm.lifetime.end.p0(i64 1, ptr nonnull %iter.sroa.5)
  %_335 = lshr i8 %2, 3
  %_356 = lshr i8 %4, 3
  %16 = icmp ult i8 %_335, %_356
  br i1 %16, label %bb9.lr.ph, label %bb11

bb9.lr.ph:                                        ; preds = %bb6
  br i1 %val, label %bb9.lr.ph.split.us, label %bb9.lr.ph.split

bb9.lr.ph.split.us:                               ; preds = %bb9.lr.ph
  br i1 %_11.i.i.i, label %bb9.us.us.preheader, label %bb9.us, !prof !3

bb9.us.us.preheader:                              ; preds = %bb9.lr.ph.split.us
  %umax61 = tail call addrspace(1) i8 @llvm.umax.i8(i8 %_335, i8 8)
  br label %bb9.us.us

bb9.us.us:                                        ; preds = %bb9.us.us.preheader, %bb1.i.i19.us.us
  %iter2.sroa.0.050.us.us = phi i8 [ %17, %bb1.i.i19.us.us ], [ %_335, %bb9.us.us.preheader ]
  %_6.i.i15.us.us = zext i8 %iter2.sroa.0.050.us.us to i16
  %exitcond62.not = icmp eq i8 %iter2.sroa.0.050.us.us, %umax61
  br i1 %exitcond62.not, label %panic.i.i20, label %bb1.i.i19.us.us, !prof !289

bb1.i.i19.us.us:                                  ; preds = %bb9.us.us
  %17 = add nuw nsw i8 %iter2.sroa.0.050.us.us, 1
  %18 = getelementptr inbounds [8 x [128 x i8]], ptr %p, i16 0, i16 %_6.i.i15.us.us, i16 %_8.i.i.i
  store i8 -1, ptr %18, align 1, !alias.scope !334
  %exitcond63.not = icmp eq i8 %17, %_356
  br i1 %exitcond63.not, label %bb11, label %bb9.us.us

bb9.us:                                           ; preds = %bb9.lr.ph.split.us
  %_6.i.i15.us = zext i8 %_335 to i16
  %_9.i.i16.us = icmp ult i8 %2, 64
  br i1 %_9.i.i16.us, label %panic1.i.i21, label %panic.i.i20, !prof !3

bb9.lr.ph.split:                                  ; preds = %bb9.lr.ph
  br i1 %_11.i.i.i, label %bb9.us53.preheader, label %bb9, !prof !3

bb9.us53.preheader:                               ; preds = %bb9.lr.ph.split
  %umax = tail call addrspace(1) i8 @llvm.umax.i8(i8 %_335, i8 8)
  br label %bb9.us53

bb9.us53:                                         ; preds = %bb9.us53.preheader, %bb1.i.i.us
  %iter2.sroa.0.050.us54 = phi i8 [ %19, %bb1.i.i.us ], [ %_335, %bb9.us53.preheader ]
  %_6.i.i.us = zext i8 %iter2.sroa.0.050.us54 to i16
  %exitcond.not = icmp eq i8 %iter2.sroa.0.050.us54, %umax
  br i1 %exitcond.not, label %panic.i.i, label %bb1.i.i.us, !prof !289

bb1.i.i.us:                                       ; preds = %bb9.us53
  %19 = add nuw nsw i8 %iter2.sroa.0.050.us54, 1
  %20 = getelementptr inbounds [8 x [128 x i8]], ptr %p, i16 0, i16 %_6.i.i.us, i16 %_8.i.i.i
  store i8 0, ptr %20, align 1, !alias.scope !339
  %exitcond60.not = icmp eq i8 %19, %_356
  br i1 %exitcond60.not, label %bb11, label %bb9.us53

panic.i.i.i:                                      ; preds = %bb4.us
; call core::panicking::panic_bounds_check
  tail call fastcc addrspace(1) void @_ZN4core9panicking18panic_bounds_check17h763c22f7e6216696E(i16 %_4.i.i.i.us, i16 8) #13
  unreachable

panic1.i.i.i:                                     ; preds = %"_ZN4core6option15Option$LT$T$GT$7or_else17h27f17428c2c797feE.exit.thread", %bb3.i.i
; call core::panicking::panic_bounds_check
  tail call fastcc addrspace(1) void @_ZN4core9panicking18panic_bounds_check17h763c22f7e6216696E(i16 %_8.i.i.i, i16 128) #13
  unreachable

bb11:                                             ; preds = %bb1.i.i.us, %bb1.i.i19.us.us, %bb6
  ret void

bb9:                                              ; preds = %bb9.lr.ph.split
  %_6.i.i = zext i8 %_335 to i16
  %_9.i.i = icmp ult i8 %2, 64
  br i1 %_9.i.i, label %panic1.i.i, label %panic.i.i, !prof !3

panic.i.i:                                        ; preds = %bb9.us53, %bb9
  %.us-phi55 = phi i16 [ %_6.i.i, %bb9 ], [ %_6.i.i.us, %bb9.us53 ]
; call core::panicking::panic_bounds_check
  tail call fastcc addrspace(1) void @_ZN4core9panicking18panic_bounds_check17h763c22f7e6216696E(i16 %.us-phi55, i16 8) #13
  unreachable

panic1.i.i:                                       ; preds = %bb9
; call core::panicking::panic_bounds_check
  tail call fastcc addrspace(1) void @_ZN4core9panicking18panic_bounds_check17h763c22f7e6216696E(i16 %_8.i.i.i, i16 128) #13
  unreachable

panic.i.i20:                                      ; preds = %bb9.us.us, %bb9.us
  %.us-phi56 = phi i16 [ %_6.i.i15.us, %bb9.us ], [ %_6.i.i15.us.us, %bb9.us.us ]
; call core::panicking::panic_bounds_check
  tail call fastcc addrspace(1) void @_ZN4core9panicking18panic_bounds_check17h763c22f7e6216696E(i16 %.us-phi56, i16 8) #13
  unreachable

panic1.i.i21:                                     ; preds = %bb9.us
; call core::panicking::panic_bounds_check
  tail call fastcc addrspace(1) void @_ZN4core9panicking18panic_bounds_check17h763c22f7e6216696E(i16 %_8.i.i.i, i16 128) #13
  unreachable
}

; core::ptr::drop_in_place<ruduino::interrupt::DisableInterrupts>
; Function Attrs: uwtable
define internal fastcc void @"_ZN4core3ptr58drop_in_place$LT$ruduino..interrupt..DisableInterrupts$GT$17h24ba00b9e0a48e1bE"() unnamed_addr addrspace(1) #0 {
start:
  tail call addrspace(0) void asm sideeffect alignstack "SEI", "~{sreg},~{memory}"() #12, !srcloc !344
  ret void
}

; Function Attrs: noreturn uwtable
define dso_local void @main() unnamed_addr addrspace(1) #2 personality ptr addrspace(1) @rust_eh_personality {
start:
  %0 = alloca %"worduino_engine::engine::Entity", align 1
  %1 = alloca %"core::option::Option<((u8, u8), worduino_engine::draw::Orientation)>", align 1
  %2 = alloca %"worduino_engine::engine::Entity", align 1
  %3 = alloca %"core::option::Option<((u8, u8), worduino_engine::draw::Orientation)>", align 1
  %iter.sroa.5.i324 = alloca i8, align 1
  %iter.sroa.5.i142 = alloca i8, align 1
  %iter.sroa.5.i101 = alloca i8, align 1
  %iter.sroa.5.i67 = alloca i8, align 1
  %iter.sroa.5.i = alloca i8, align 1
  %_8.i.i67.i.i = alloca %"worduino_engine::engine::Entity", align 1
  %_6.i.i68.i.i = alloca %"core::option::Option<((u8, u8), worduino_engine::draw::Orientation)>", align 1
  %_8.i.i37.i.i = alloca %"worduino_engine::engine::Entity", align 1
  %_6.i.i.i.i = alloca %"core::option::Option<((u8, u8), worduino_engine::draw::Orientation)>", align 1
  %iter.sroa.5.i120.i.i.i = alloca i8, align 1
  %iter.sroa.5.i.i.i.i = alloca i8, align 1
  %buffer.i.i.i41.i.i.i = alloca i8, align 1
  %buffer.i.i.i.i.i.i = alloca i16, align 1
  %buffer.i.i.i.i1 = alloca { ptr, ptr }, align 1
  %_138.sroa.5.i.i = alloca [102 x i8], align 1
  %_138.sroa.7.i.i = alloca [13 x i8], align 1
  %monsters2.i.i = alloca [8 x %"core::option::Option<worduino_engine::engine::BasicMonster>"], align 1
  %player.i.i = alloca %"worduino_engine::engine::Player", align 1
  %buffer.i.i.i.i = alloca i8, align 1
  %engine = alloca %"worduino_engine::engine::Engine<ArduboyPeripherals>", align 1
  %4 = load volatile i8, ptr inttoptr (i16 48 to ptr), align 16
  %5 = and i8 %4, 15
  store volatile i8 %5, ptr inttoptr (i16 48 to ptr), align 16
  %6 = load volatile i8, ptr inttoptr (i16 49 to ptr), align 1
  %7 = or i8 %6, -16
  store volatile i8 %7, ptr inttoptr (i16 49 to ptr), align 1
  %8 = load volatile i8, ptr inttoptr (i16 45 to ptr), align 1
  %9 = and i8 %8, -65
  store volatile i8 %9, ptr inttoptr (i16 45 to ptr), align 1
  %10 = load volatile i8, ptr inttoptr (i16 36 to ptr), align 4
  %11 = and i8 %10, -17
  store volatile i8 %11, ptr inttoptr (i16 36 to ptr), align 4
  %12 = load volatile i8, ptr inttoptr (i16 36 to ptr), align 4
  %13 = and i8 %12, -9
  store volatile i8 %13, ptr inttoptr (i16 36 to ptr), align 4
  %14 = load volatile i8, ptr inttoptr (i16 36 to ptr), align 4
  %15 = or i8 %14, 4
  store volatile i8 %15, ptr inttoptr (i16 36 to ptr), align 4
  %16 = load volatile i8, ptr inttoptr (i16 36 to ptr), align 4
  %17 = or i8 %16, 2
  store volatile i8 %17, ptr inttoptr (i16 36 to ptr), align 4
  %18 = load volatile i8, ptr inttoptr (i16 76 to ptr), align 4
  %19 = or i8 %18, 16
  store volatile i8 %19, ptr inttoptr (i16 76 to ptr), align 4
  %20 = load volatile i8, ptr inttoptr (i16 76 to ptr), align 4
  %21 = or i8 %20, 64
  store volatile i8 %21, ptr inttoptr (i16 76 to ptr), align 4
  %22 = load volatile i8, ptr inttoptr (i16 42 to ptr), align 2
  %23 = or i8 %22, 64
  store volatile i8 %23, ptr inttoptr (i16 42 to ptr), align 2
  %24 = load volatile i8, ptr inttoptr (i16 42 to ptr), align 2
  %25 = or i8 %24, -128
  store volatile i8 %25, ptr inttoptr (i16 42 to ptr), align 2
  %26 = load volatile i8, ptr inttoptr (i16 42 to ptr), align 2
  %27 = or i8 %26, 16
  store volatile i8 %27, ptr inttoptr (i16 42 to ptr), align 2
  %28 = load volatile i8, ptr inttoptr (i16 43 to ptr), align 1
  %29 = or i8 %28, -128
  store volatile i8 %29, ptr inttoptr (i16 43 to ptr), align 1
  %30 = tail call addrspace(0) i16 asm sideeffect alignstack "1: sbiw ${0}, 1\0Abrne 1b", "=&w,0,~{sreg},~{memory}"(i16 2) #12, !srcloc !345
  %31 = load volatile i8, ptr inttoptr (i16 43 to ptr), align 1
  %32 = and i8 %31, 127
  store volatile i8 %32, ptr inttoptr (i16 43 to ptr), align 1
  %33 = tail call addrspace(0) i16 asm sideeffect alignstack "1: sbiw ${0}, 1\0Abrne 1b", "=&w,0,~{sreg},~{memory}"(i16 -25535) #12, !srcloc !345
  %34 = load volatile i8, ptr inttoptr (i16 43 to ptr), align 1
  %35 = or i8 %34, -128
  store volatile i8 %35, ptr inttoptr (i16 43 to ptr), align 1
  %36 = load volatile i8, ptr inttoptr (i16 43 to ptr), align 1
  %37 = and i8 %36, -65
  store volatile i8 %37, ptr inttoptr (i16 43 to ptr), align 1
  %38 = load volatile i8, ptr inttoptr (i16 43 to ptr), align 1
  %39 = and i8 %38, -17
  store volatile i8 %39, ptr inttoptr (i16 43 to ptr), align 1
  %40 = load volatile i8, ptr inttoptr (i16 43 to ptr), align 1
  %41 = and i8 %40, -65
  store volatile i8 %41, ptr inttoptr (i16 43 to ptr), align 1
  call addrspace(1) void @llvm.lifetime.start.p0(i64 1, ptr nonnull %buffer.i.i.i.i)
  %42 = call addrspace(0) { i8, i8, ptr, ptr } asm sideeffect alignstack "\0A\09\09\09\09\09\09// load value from program memory at indirect Z into temp\0A\09\09\09\09\09\09// register $$3 and post-increment Z by one\0A\09\09\09\09\09\09lpm ${1}, Z+\0A\0A\09\09\09\09\09\09// write register $$3 to data memory at indirect X\0A\09\09\09\09\09\09// and post-increment X by one\0A\09\09\09\09\09\09st X+, ${1}\0A\0A\09\09\09\09\09\09// Decrement the loop counter in register $$0 (size_bytes).\0A\09\09\09\09\09\09// If zero has been reached the equality flag is set.\0A\09\09\09\09\09\09subi ${0}, 1\0A\0A\09\09\09\09\09\09// Check whether the end has not been reached and if so jump back.\0A\09\09\09\09\09\09// The end is reached if $$0 (size_bytes) == 0, i.e. equality flag\0A\09\09\09\09\09\09// is set.\0A\09\09\09\09\09\09// Thus if equality flag is NOT set (brNE) jump back by 4\0A\09\09\09\09\09\09// instruction, that are all instructions in this assembly.\0A\09\09\09\09\09\09// Notice: 4 instructions = 8 Byte\0A\09\09\09\09\09\09brne -8\0A\09\09\09\09\09", "=&r,=&r,=&{r31r30},=&{r27r26},0,2,3,~{sreg},~{memory}"(i8 1, ptr nonnull @_ZN12worduino_avr7ssd130611INIT_SCREEN5VALUE17h7ee0c94dce19b4bcE, ptr nonnull %buffer.i.i.i.i) #12, !srcloc !4
  %self.i.i.i.i = load i8, ptr %buffer.i.i.i.i, align 1
  call addrspace(1) void @llvm.lifetime.end.p0(i64 1, ptr nonnull %buffer.i.i.i.i)
  store volatile i8 %self.i.i.i.i, ptr inttoptr (i16 78 to ptr), align 2
  br label %bb1.i.i.i

bb2.loopexit.i:                                   ; preds = %bb1.i.i.i
  call addrspace(1) void @llvm.lifetime.start.p0(i64 1, ptr nonnull %buffer.i.i.i.i)
  %43 = call addrspace(0) { i8, i8, ptr, ptr } asm sideeffect alignstack "\0A\09\09\09\09\09\09// load value from program memory at indirect Z into temp\0A\09\09\09\09\09\09// register $$3 and post-increment Z by one\0A\09\09\09\09\09\09lpm ${1}, Z+\0A\0A\09\09\09\09\09\09// write register $$3 to data memory at indirect X\0A\09\09\09\09\09\09// and post-increment X by one\0A\09\09\09\09\09\09st X+, ${1}\0A\0A\09\09\09\09\09\09// Decrement the loop counter in register $$0 (size_bytes).\0A\09\09\09\09\09\09// If zero has been reached the equality flag is set.\0A\09\09\09\09\09\09subi ${0}, 1\0A\0A\09\09\09\09\09\09// Check whether the end has not been reached and if so jump back.\0A\09\09\09\09\09\09// The end is reached if $$0 (size_bytes) == 0, i.e. equality flag\0A\09\09\09\09\09\09// is set.\0A\09\09\09\09\09\09// Thus if equality flag is NOT set (brNE) jump back by 4\0A\09\09\09\09\09\09// instruction, that are all instructions in this assembly.\0A\09\09\09\09\09\09// Notice: 4 instructions = 8 Byte\0A\09\09\09\09\09\09brne -8\0A\09\09\09\09\09", "=&r,=&r,=&{r31r30},=&{r27r26},0,2,3,~{sreg},~{memory}"(i8 1, ptr nonnull getelementptr inbounds (<{ [13 x i8] }>, ptr @_ZN12worduino_avr7ssd130611INIT_SCREEN5VALUE17h7ee0c94dce19b4bcE, i16 0, i32 0, i16 1), ptr nonnull %buffer.i.i.i.i) #12, !srcloc !4
  %self.i.i.i.1.i = load i8, ptr %buffer.i.i.i.i, align 1
  call addrspace(1) void @llvm.lifetime.end.p0(i64 1, ptr nonnull %buffer.i.i.i.i)
  store volatile i8 %self.i.i.i.1.i, ptr inttoptr (i16 78 to ptr), align 2
  br label %bb1.i.i.1.i

bb1.i.i.1.i:                                      ; preds = %bb1.i.i.1.i, %bb2.loopexit.i
  %44 = load volatile i8, ptr inttoptr (i16 77 to ptr), align 1
  %45 = icmp slt i8 %44, 0
  br i1 %45, label %bb2.loopexit.1.i, label %bb1.i.i.1.i

bb2.loopexit.1.i:                                 ; preds = %bb1.i.i.1.i
  call addrspace(1) void @llvm.lifetime.start.p0(i64 1, ptr nonnull %buffer.i.i.i.i)
  %46 = call addrspace(0) { i8, i8, ptr, ptr } asm sideeffect alignstack "\0A\09\09\09\09\09\09// load value from program memory at indirect Z into temp\0A\09\09\09\09\09\09// register $$3 and post-increment Z by one\0A\09\09\09\09\09\09lpm ${1}, Z+\0A\0A\09\09\09\09\09\09// write register $$3 to data memory at indirect X\0A\09\09\09\09\09\09// and post-increment X by one\0A\09\09\09\09\09\09st X+, ${1}\0A\0A\09\09\09\09\09\09// Decrement the loop counter in register $$0 (size_bytes).\0A\09\09\09\09\09\09// If zero has been reached the equality flag is set.\0A\09\09\09\09\09\09subi ${0}, 1\0A\0A\09\09\09\09\09\09// Check whether the end has not been reached and if so jump back.\0A\09\09\09\09\09\09// The end is reached if $$0 (size_bytes) == 0, i.e. equality flag\0A\09\09\09\09\09\09// is set.\0A\09\09\09\09\09\09// Thus if equality flag is NOT set (brNE) jump back by 4\0A\09\09\09\09\09\09// instruction, that are all instructions in this assembly.\0A\09\09\09\09\09\09// Notice: 4 instructions = 8 Byte\0A\09\09\09\09\09\09brne -8\0A\09\09\09\09\09", "=&r,=&r,=&{r31r30},=&{r27r26},0,2,3,~{sreg},~{memory}"(i8 1, ptr nonnull getelementptr inbounds (<{ [13 x i8] }>, ptr @_ZN12worduino_avr7ssd130611INIT_SCREEN5VALUE17h7ee0c94dce19b4bcE, i16 0, i32 0, i16 2), ptr nonnull %buffer.i.i.i.i) #12, !srcloc !4
  %self.i.i.i.2.i = load i8, ptr %buffer.i.i.i.i, align 1
  call addrspace(1) void @llvm.lifetime.end.p0(i64 1, ptr nonnull %buffer.i.i.i.i)
  store volatile i8 %self.i.i.i.2.i, ptr inttoptr (i16 78 to ptr), align 2
  br label %bb1.i.i.2.i

bb1.i.i.2.i:                                      ; preds = %bb1.i.i.2.i, %bb2.loopexit.1.i
  %47 = load volatile i8, ptr inttoptr (i16 77 to ptr), align 1
  %48 = icmp slt i8 %47, 0
  br i1 %48, label %bb2.loopexit.2.i, label %bb1.i.i.2.i

bb2.loopexit.2.i:                                 ; preds = %bb1.i.i.2.i
  call addrspace(1) void @llvm.lifetime.start.p0(i64 1, ptr nonnull %buffer.i.i.i.i)
  %49 = call addrspace(0) { i8, i8, ptr, ptr } asm sideeffect alignstack "\0A\09\09\09\09\09\09// load value from program memory at indirect Z into temp\0A\09\09\09\09\09\09// register $$3 and post-increment Z by one\0A\09\09\09\09\09\09lpm ${1}, Z+\0A\0A\09\09\09\09\09\09// write register $$3 to data memory at indirect X\0A\09\09\09\09\09\09// and post-increment X by one\0A\09\09\09\09\09\09st X+, ${1}\0A\0A\09\09\09\09\09\09// Decrement the loop counter in register $$0 (size_bytes).\0A\09\09\09\09\09\09// If zero has been reached the equality flag is set.\0A\09\09\09\09\09\09subi ${0}, 1\0A\0A\09\09\09\09\09\09// Check whether the end has not been reached and if so jump back.\0A\09\09\09\09\09\09// The end is reached if $$0 (size_bytes) == 0, i.e. equality flag\0A\09\09\09\09\09\09// is set.\0A\09\09\09\09\09\09// Thus if equality flag is NOT set (brNE) jump back by 4\0A\09\09\09\09\09\09// instruction, that are all instructions in this assembly.\0A\09\09\09\09\09\09// Notice: 4 instructions = 8 Byte\0A\09\09\09\09\09\09brne -8\0A\09\09\09\09\09", "=&r,=&r,=&{r31r30},=&{r27r26},0,2,3,~{sreg},~{memory}"(i8 1, ptr nonnull getelementptr inbounds (<{ [13 x i8] }>, ptr @_ZN12worduino_avr7ssd130611INIT_SCREEN5VALUE17h7ee0c94dce19b4bcE, i16 0, i32 0, i16 3), ptr nonnull %buffer.i.i.i.i) #12, !srcloc !4
  %self.i.i.i.3.i = load i8, ptr %buffer.i.i.i.i, align 1
  call addrspace(1) void @llvm.lifetime.end.p0(i64 1, ptr nonnull %buffer.i.i.i.i)
  store volatile i8 %self.i.i.i.3.i, ptr inttoptr (i16 78 to ptr), align 2
  br label %bb1.i.i.3.i

bb1.i.i.3.i:                                      ; preds = %bb1.i.i.3.i, %bb2.loopexit.2.i
  %50 = load volatile i8, ptr inttoptr (i16 77 to ptr), align 1
  %51 = icmp slt i8 %50, 0
  br i1 %51, label %bb2.loopexit.3.i, label %bb1.i.i.3.i

bb2.loopexit.3.i:                                 ; preds = %bb1.i.i.3.i
  call addrspace(1) void @llvm.lifetime.start.p0(i64 1, ptr nonnull %buffer.i.i.i.i)
  %52 = call addrspace(0) { i8, i8, ptr, ptr } asm sideeffect alignstack "\0A\09\09\09\09\09\09// load value from program memory at indirect Z into temp\0A\09\09\09\09\09\09// register $$3 and post-increment Z by one\0A\09\09\09\09\09\09lpm ${1}, Z+\0A\0A\09\09\09\09\09\09// write register $$3 to data memory at indirect X\0A\09\09\09\09\09\09// and post-increment X by one\0A\09\09\09\09\09\09st X+, ${1}\0A\0A\09\09\09\09\09\09// Decrement the loop counter in register $$0 (size_bytes).\0A\09\09\09\09\09\09// If zero has been reached the equality flag is set.\0A\09\09\09\09\09\09subi ${0}, 1\0A\0A\09\09\09\09\09\09// Check whether the end has not been reached and if so jump back.\0A\09\09\09\09\09\09// The end is reached if $$0 (size_bytes) == 0, i.e. equality flag\0A\09\09\09\09\09\09// is set.\0A\09\09\09\09\09\09// Thus if equality flag is NOT set (brNE) jump back by 4\0A\09\09\09\09\09\09// instruction, that are all instructions in this assembly.\0A\09\09\09\09\09\09// Notice: 4 instructions = 8 Byte\0A\09\09\09\09\09\09brne -8\0A\09\09\09\09\09", "=&r,=&r,=&{r31r30},=&{r27r26},0,2,3,~{sreg},~{memory}"(i8 1, ptr nonnull getelementptr inbounds (<{ [13 x i8] }>, ptr @_ZN12worduino_avr7ssd130611INIT_SCREEN5VALUE17h7ee0c94dce19b4bcE, i16 0, i32 0, i16 4), ptr nonnull %buffer.i.i.i.i) #12, !srcloc !4
  %self.i.i.i.4.i = load i8, ptr %buffer.i.i.i.i, align 1
  call addrspace(1) void @llvm.lifetime.end.p0(i64 1, ptr nonnull %buffer.i.i.i.i)
  store volatile i8 %self.i.i.i.4.i, ptr inttoptr (i16 78 to ptr), align 2
  br label %bb1.i.i.4.i

bb1.i.i.4.i:                                      ; preds = %bb1.i.i.4.i, %bb2.loopexit.3.i
  %53 = load volatile i8, ptr inttoptr (i16 77 to ptr), align 1
  %54 = icmp slt i8 %53, 0
  br i1 %54, label %bb2.loopexit.4.i, label %bb1.i.i.4.i

bb2.loopexit.4.i:                                 ; preds = %bb1.i.i.4.i
  call addrspace(1) void @llvm.lifetime.start.p0(i64 1, ptr nonnull %buffer.i.i.i.i)
  %55 = call addrspace(0) { i8, i8, ptr, ptr } asm sideeffect alignstack "\0A\09\09\09\09\09\09// load value from program memory at indirect Z into temp\0A\09\09\09\09\09\09// register $$3 and post-increment Z by one\0A\09\09\09\09\09\09lpm ${1}, Z+\0A\0A\09\09\09\09\09\09// write register $$3 to data memory at indirect X\0A\09\09\09\09\09\09// and post-increment X by one\0A\09\09\09\09\09\09st X+, ${1}\0A\0A\09\09\09\09\09\09// Decrement the loop counter in register $$0 (size_bytes).\0A\09\09\09\09\09\09// If zero has been reached the equality flag is set.\0A\09\09\09\09\09\09subi ${0}, 1\0A\0A\09\09\09\09\09\09// Check whether the end has not been reached and if so jump back.\0A\09\09\09\09\09\09// The end is reached if $$0 (size_bytes) == 0, i.e. equality flag\0A\09\09\09\09\09\09// is set.\0A\09\09\09\09\09\09// Thus if equality flag is NOT set (brNE) jump back by 4\0A\09\09\09\09\09\09// instruction, that are all instructions in this assembly.\0A\09\09\09\09\09\09// Notice: 4 instructions = 8 Byte\0A\09\09\09\09\09\09brne -8\0A\09\09\09\09\09", "=&r,=&r,=&{r31r30},=&{r27r26},0,2,3,~{sreg},~{memory}"(i8 1, ptr nonnull getelementptr inbounds (<{ [13 x i8] }>, ptr @_ZN12worduino_avr7ssd130611INIT_SCREEN5VALUE17h7ee0c94dce19b4bcE, i16 0, i32 0, i16 5), ptr nonnull %buffer.i.i.i.i) #12, !srcloc !4
  %self.i.i.i.5.i = load i8, ptr %buffer.i.i.i.i, align 1
  call addrspace(1) void @llvm.lifetime.end.p0(i64 1, ptr nonnull %buffer.i.i.i.i)
  store volatile i8 %self.i.i.i.5.i, ptr inttoptr (i16 78 to ptr), align 2
  br label %bb1.i.i.5.i

bb1.i.i.5.i:                                      ; preds = %bb1.i.i.5.i, %bb2.loopexit.4.i
  %56 = load volatile i8, ptr inttoptr (i16 77 to ptr), align 1
  %57 = icmp slt i8 %56, 0
  br i1 %57, label %bb2.loopexit.5.i, label %bb1.i.i.5.i

bb2.loopexit.5.i:                                 ; preds = %bb1.i.i.5.i
  call addrspace(1) void @llvm.lifetime.start.p0(i64 1, ptr nonnull %buffer.i.i.i.i)
  %58 = call addrspace(0) { i8, i8, ptr, ptr } asm sideeffect alignstack "\0A\09\09\09\09\09\09// load value from program memory at indirect Z into temp\0A\09\09\09\09\09\09// register $$3 and post-increment Z by one\0A\09\09\09\09\09\09lpm ${1}, Z+\0A\0A\09\09\09\09\09\09// write register $$3 to data memory at indirect X\0A\09\09\09\09\09\09// and post-increment X by one\0A\09\09\09\09\09\09st X+, ${1}\0A\0A\09\09\09\09\09\09// Decrement the loop counter in register $$0 (size_bytes).\0A\09\09\09\09\09\09// If zero has been reached the equality flag is set.\0A\09\09\09\09\09\09subi ${0}, 1\0A\0A\09\09\09\09\09\09// Check whether the end has not been reached and if so jump back.\0A\09\09\09\09\09\09// The end is reached if $$0 (size_bytes) == 0, i.e. equality flag\0A\09\09\09\09\09\09// is set.\0A\09\09\09\09\09\09// Thus if equality flag is NOT set (brNE) jump back by 4\0A\09\09\09\09\09\09// instruction, that are all instructions in this assembly.\0A\09\09\09\09\09\09// Notice: 4 instructions = 8 Byte\0A\09\09\09\09\09\09brne -8\0A\09\09\09\09\09", "=&r,=&r,=&{r31r30},=&{r27r26},0,2,3,~{sreg},~{memory}"(i8 1, ptr nonnull getelementptr inbounds (<{ [13 x i8] }>, ptr @_ZN12worduino_avr7ssd130611INIT_SCREEN5VALUE17h7ee0c94dce19b4bcE, i16 0, i32 0, i16 6), ptr nonnull %buffer.i.i.i.i) #12, !srcloc !4
  %self.i.i.i.6.i = load i8, ptr %buffer.i.i.i.i, align 1
  call addrspace(1) void @llvm.lifetime.end.p0(i64 1, ptr nonnull %buffer.i.i.i.i)
  store volatile i8 %self.i.i.i.6.i, ptr inttoptr (i16 78 to ptr), align 2
  br label %bb1.i.i.6.i

bb1.i.i.6.i:                                      ; preds = %bb1.i.i.6.i, %bb2.loopexit.5.i
  %59 = load volatile i8, ptr inttoptr (i16 77 to ptr), align 1
  %60 = icmp slt i8 %59, 0
  br i1 %60, label %bb2.loopexit.6.i, label %bb1.i.i.6.i

bb2.loopexit.6.i:                                 ; preds = %bb1.i.i.6.i
  call addrspace(1) void @llvm.lifetime.start.p0(i64 1, ptr nonnull %buffer.i.i.i.i)
  %61 = call addrspace(0) { i8, i8, ptr, ptr } asm sideeffect alignstack "\0A\09\09\09\09\09\09// load value from program memory at indirect Z into temp\0A\09\09\09\09\09\09// register $$3 and post-increment Z by one\0A\09\09\09\09\09\09lpm ${1}, Z+\0A\0A\09\09\09\09\09\09// write register $$3 to data memory at indirect X\0A\09\09\09\09\09\09// and post-increment X by one\0A\09\09\09\09\09\09st X+, ${1}\0A\0A\09\09\09\09\09\09// Decrement the loop counter in register $$0 (size_bytes).\0A\09\09\09\09\09\09// If zero has been reached the equality flag is set.\0A\09\09\09\09\09\09subi ${0}, 1\0A\0A\09\09\09\09\09\09// Check whether the end has not been reached and if so jump back.\0A\09\09\09\09\09\09// The end is reached if $$0 (size_bytes) == 0, i.e. equality flag\0A\09\09\09\09\09\09// is set.\0A\09\09\09\09\09\09// Thus if equality flag is NOT set (brNE) jump back by 4\0A\09\09\09\09\09\09// instruction, that are all instructions in this assembly.\0A\09\09\09\09\09\09// Notice: 4 instructions = 8 Byte\0A\09\09\09\09\09\09brne -8\0A\09\09\09\09\09", "=&r,=&r,=&{r31r30},=&{r27r26},0,2,3,~{sreg},~{memory}"(i8 1, ptr nonnull getelementptr inbounds (<{ [13 x i8] }>, ptr @_ZN12worduino_avr7ssd130611INIT_SCREEN5VALUE17h7ee0c94dce19b4bcE, i16 0, i32 0, i16 7), ptr nonnull %buffer.i.i.i.i) #12, !srcloc !4
  %self.i.i.i.7.i = load i8, ptr %buffer.i.i.i.i, align 1
  call addrspace(1) void @llvm.lifetime.end.p0(i64 1, ptr nonnull %buffer.i.i.i.i)
  store volatile i8 %self.i.i.i.7.i, ptr inttoptr (i16 78 to ptr), align 2
  br label %bb1.i.i.7.i

bb1.i.i.7.i:                                      ; preds = %bb1.i.i.7.i, %bb2.loopexit.6.i
  %62 = load volatile i8, ptr inttoptr (i16 77 to ptr), align 1
  %63 = icmp slt i8 %62, 0
  br i1 %63, label %bb2.loopexit.7.i, label %bb1.i.i.7.i

bb2.loopexit.7.i:                                 ; preds = %bb1.i.i.7.i
  call addrspace(1) void @llvm.lifetime.start.p0(i64 1, ptr nonnull %buffer.i.i.i.i)
  %64 = call addrspace(0) { i8, i8, ptr, ptr } asm sideeffect alignstack "\0A\09\09\09\09\09\09// load value from program memory at indirect Z into temp\0A\09\09\09\09\09\09// register $$3 and post-increment Z by one\0A\09\09\09\09\09\09lpm ${1}, Z+\0A\0A\09\09\09\09\09\09// write register $$3 to data memory at indirect X\0A\09\09\09\09\09\09// and post-increment X by one\0A\09\09\09\09\09\09st X+, ${1}\0A\0A\09\09\09\09\09\09// Decrement the loop counter in register $$0 (size_bytes).\0A\09\09\09\09\09\09// If zero has been reached the equality flag is set.\0A\09\09\09\09\09\09subi ${0}, 1\0A\0A\09\09\09\09\09\09// Check whether the end has not been reached and if so jump back.\0A\09\09\09\09\09\09// The end is reached if $$0 (size_bytes) == 0, i.e. equality flag\0A\09\09\09\09\09\09// is set.\0A\09\09\09\09\09\09// Thus if equality flag is NOT set (brNE) jump back by 4\0A\09\09\09\09\09\09// instruction, that are all instructions in this assembly.\0A\09\09\09\09\09\09// Notice: 4 instructions = 8 Byte\0A\09\09\09\09\09\09brne -8\0A\09\09\09\09\09", "=&r,=&r,=&{r31r30},=&{r27r26},0,2,3,~{sreg},~{memory}"(i8 1, ptr nonnull getelementptr inbounds (<{ [13 x i8] }>, ptr @_ZN12worduino_avr7ssd130611INIT_SCREEN5VALUE17h7ee0c94dce19b4bcE, i16 0, i32 0, i16 8), ptr nonnull %buffer.i.i.i.i) #12, !srcloc !4
  %self.i.i.i.8.i = load i8, ptr %buffer.i.i.i.i, align 1
  call addrspace(1) void @llvm.lifetime.end.p0(i64 1, ptr nonnull %buffer.i.i.i.i)
  store volatile i8 %self.i.i.i.8.i, ptr inttoptr (i16 78 to ptr), align 2
  br label %bb1.i.i.8.i

bb1.i.i.8.i:                                      ; preds = %bb1.i.i.8.i, %bb2.loopexit.7.i
  %65 = load volatile i8, ptr inttoptr (i16 77 to ptr), align 1
  %66 = icmp slt i8 %65, 0
  br i1 %66, label %bb2.loopexit.8.i, label %bb1.i.i.8.i

bb2.loopexit.8.i:                                 ; preds = %bb1.i.i.8.i
  call addrspace(1) void @llvm.lifetime.start.p0(i64 1, ptr nonnull %buffer.i.i.i.i)
  %67 = call addrspace(0) { i8, i8, ptr, ptr } asm sideeffect alignstack "\0A\09\09\09\09\09\09// load value from program memory at indirect Z into temp\0A\09\09\09\09\09\09// register $$3 and post-increment Z by one\0A\09\09\09\09\09\09lpm ${1}, Z+\0A\0A\09\09\09\09\09\09// write register $$3 to data memory at indirect X\0A\09\09\09\09\09\09// and post-increment X by one\0A\09\09\09\09\09\09st X+, ${1}\0A\0A\09\09\09\09\09\09// Decrement the loop counter in register $$0 (size_bytes).\0A\09\09\09\09\09\09// If zero has been reached the equality flag is set.\0A\09\09\09\09\09\09subi ${0}, 1\0A\0A\09\09\09\09\09\09// Check whether the end has not been reached and if so jump back.\0A\09\09\09\09\09\09// The end is reached if $$0 (size_bytes) == 0, i.e. equality flag\0A\09\09\09\09\09\09// is set.\0A\09\09\09\09\09\09// Thus if equality flag is NOT set (brNE) jump back by 4\0A\09\09\09\09\09\09// instruction, that are all instructions in this assembly.\0A\09\09\09\09\09\09// Notice: 4 instructions = 8 Byte\0A\09\09\09\09\09\09brne -8\0A\09\09\09\09\09", "=&r,=&r,=&{r31r30},=&{r27r26},0,2,3,~{sreg},~{memory}"(i8 1, ptr nonnull getelementptr inbounds (<{ [13 x i8] }>, ptr @_ZN12worduino_avr7ssd130611INIT_SCREEN5VALUE17h7ee0c94dce19b4bcE, i16 0, i32 0, i16 9), ptr nonnull %buffer.i.i.i.i) #12, !srcloc !4
  %self.i.i.i.9.i = load i8, ptr %buffer.i.i.i.i, align 1
  call addrspace(1) void @llvm.lifetime.end.p0(i64 1, ptr nonnull %buffer.i.i.i.i)
  store volatile i8 %self.i.i.i.9.i, ptr inttoptr (i16 78 to ptr), align 2
  br label %bb1.i.i.9.i

bb1.i.i.9.i:                                      ; preds = %bb1.i.i.9.i, %bb2.loopexit.8.i
  %68 = load volatile i8, ptr inttoptr (i16 77 to ptr), align 1
  %69 = icmp slt i8 %68, 0
  br i1 %69, label %bb2.loopexit.9.i, label %bb1.i.i.9.i

bb2.loopexit.9.i:                                 ; preds = %bb1.i.i.9.i
  call addrspace(1) void @llvm.lifetime.start.p0(i64 1, ptr nonnull %buffer.i.i.i.i)
  %70 = call addrspace(0) { i8, i8, ptr, ptr } asm sideeffect alignstack "\0A\09\09\09\09\09\09// load value from program memory at indirect Z into temp\0A\09\09\09\09\09\09// register $$3 and post-increment Z by one\0A\09\09\09\09\09\09lpm ${1}, Z+\0A\0A\09\09\09\09\09\09// write register $$3 to data memory at indirect X\0A\09\09\09\09\09\09// and post-increment X by one\0A\09\09\09\09\09\09st X+, ${1}\0A\0A\09\09\09\09\09\09// Decrement the loop counter in register $$0 (size_bytes).\0A\09\09\09\09\09\09// If zero has been reached the equality flag is set.\0A\09\09\09\09\09\09subi ${0}, 1\0A\0A\09\09\09\09\09\09// Check whether the end has not been reached and if so jump back.\0A\09\09\09\09\09\09// The end is reached if $$0 (size_bytes) == 0, i.e. equality flag\0A\09\09\09\09\09\09// is set.\0A\09\09\09\09\09\09// Thus if equality flag is NOT set (brNE) jump back by 4\0A\09\09\09\09\09\09// instruction, that are all instructions in this assembly.\0A\09\09\09\09\09\09// Notice: 4 instructions = 8 Byte\0A\09\09\09\09\09\09brne -8\0A\09\09\09\09\09", "=&r,=&r,=&{r31r30},=&{r27r26},0,2,3,~{sreg},~{memory}"(i8 1, ptr nonnull getelementptr inbounds (<{ [13 x i8] }>, ptr @_ZN12worduino_avr7ssd130611INIT_SCREEN5VALUE17h7ee0c94dce19b4bcE, i16 0, i32 0, i16 10), ptr nonnull %buffer.i.i.i.i) #12, !srcloc !4
  %self.i.i.i.10.i = load i8, ptr %buffer.i.i.i.i, align 1
  call addrspace(1) void @llvm.lifetime.end.p0(i64 1, ptr nonnull %buffer.i.i.i.i)
  store volatile i8 %self.i.i.i.10.i, ptr inttoptr (i16 78 to ptr), align 2
  br label %bb1.i.i.10.i

bb1.i.i.10.i:                                     ; preds = %bb1.i.i.10.i, %bb2.loopexit.9.i
  %71 = load volatile i8, ptr inttoptr (i16 77 to ptr), align 1
  %72 = icmp slt i8 %71, 0
  br i1 %72, label %bb2.loopexit.10.i, label %bb1.i.i.10.i

bb2.loopexit.10.i:                                ; preds = %bb1.i.i.10.i
  call addrspace(1) void @llvm.lifetime.start.p0(i64 1, ptr nonnull %buffer.i.i.i.i)
  %73 = call addrspace(0) { i8, i8, ptr, ptr } asm sideeffect alignstack "\0A\09\09\09\09\09\09// load value from program memory at indirect Z into temp\0A\09\09\09\09\09\09// register $$3 and post-increment Z by one\0A\09\09\09\09\09\09lpm ${1}, Z+\0A\0A\09\09\09\09\09\09// write register $$3 to data memory at indirect X\0A\09\09\09\09\09\09// and post-increment X by one\0A\09\09\09\09\09\09st X+, ${1}\0A\0A\09\09\09\09\09\09// Decrement the loop counter in register $$0 (size_bytes).\0A\09\09\09\09\09\09// If zero has been reached the equality flag is set.\0A\09\09\09\09\09\09subi ${0}, 1\0A\0A\09\09\09\09\09\09// Check whether the end has not been reached and if so jump back.\0A\09\09\09\09\09\09// The end is reached if $$0 (size_bytes) == 0, i.e. equality flag\0A\09\09\09\09\09\09// is set.\0A\09\09\09\09\09\09// Thus if equality flag is NOT set (brNE) jump back by 4\0A\09\09\09\09\09\09// instruction, that are all instructions in this assembly.\0A\09\09\09\09\09\09// Notice: 4 instructions = 8 Byte\0A\09\09\09\09\09\09brne -8\0A\09\09\09\09\09", "=&r,=&r,=&{r31r30},=&{r27r26},0,2,3,~{sreg},~{memory}"(i8 1, ptr nonnull getelementptr inbounds (<{ [13 x i8] }>, ptr @_ZN12worduino_avr7ssd130611INIT_SCREEN5VALUE17h7ee0c94dce19b4bcE, i16 0, i32 0, i16 11), ptr nonnull %buffer.i.i.i.i) #12, !srcloc !4
  %self.i.i.i.11.i = load i8, ptr %buffer.i.i.i.i, align 1
  call addrspace(1) void @llvm.lifetime.end.p0(i64 1, ptr nonnull %buffer.i.i.i.i)
  store volatile i8 %self.i.i.i.11.i, ptr inttoptr (i16 78 to ptr), align 2
  br label %bb1.i.i.11.i

bb1.i.i.11.i:                                     ; preds = %bb1.i.i.11.i, %bb2.loopexit.10.i
  %74 = load volatile i8, ptr inttoptr (i16 77 to ptr), align 1
  %75 = icmp slt i8 %74, 0
  br i1 %75, label %bb2.loopexit.11.i, label %bb1.i.i.11.i

bb2.loopexit.11.i:                                ; preds = %bb1.i.i.11.i
  call addrspace(1) void @llvm.lifetime.start.p0(i64 1, ptr nonnull %buffer.i.i.i.i)
  %76 = call addrspace(0) { i8, i8, ptr, ptr } asm sideeffect alignstack "\0A\09\09\09\09\09\09// load value from program memory at indirect Z into temp\0A\09\09\09\09\09\09// register $$3 and post-increment Z by one\0A\09\09\09\09\09\09lpm ${1}, Z+\0A\0A\09\09\09\09\09\09// write register $$3 to data memory at indirect X\0A\09\09\09\09\09\09// and post-increment X by one\0A\09\09\09\09\09\09st X+, ${1}\0A\0A\09\09\09\09\09\09// Decrement the loop counter in register $$0 (size_bytes).\0A\09\09\09\09\09\09// If zero has been reached the equality flag is set.\0A\09\09\09\09\09\09subi ${0}, 1\0A\0A\09\09\09\09\09\09// Check whether the end has not been reached and if so jump back.\0A\09\09\09\09\09\09// The end is reached if $$0 (size_bytes) == 0, i.e. equality flag\0A\09\09\09\09\09\09// is set.\0A\09\09\09\09\09\09// Thus if equality flag is NOT set (brNE) jump back by 4\0A\09\09\09\09\09\09// instruction, that are all instructions in this assembly.\0A\09\09\09\09\09\09// Notice: 4 instructions = 8 Byte\0A\09\09\09\09\09\09brne -8\0A\09\09\09\09\09", "=&r,=&r,=&{r31r30},=&{r27r26},0,2,3,~{sreg},~{memory}"(i8 1, ptr nonnull getelementptr inbounds (<{ [13 x i8] }>, ptr @_ZN12worduino_avr7ssd130611INIT_SCREEN5VALUE17h7ee0c94dce19b4bcE, i16 0, i32 0, i16 12), ptr nonnull %buffer.i.i.i.i) #12, !srcloc !4
  %self.i.i.i.12.i = load i8, ptr %buffer.i.i.i.i, align 1
  call addrspace(1) void @llvm.lifetime.end.p0(i64 1, ptr nonnull %buffer.i.i.i.i)
  store volatile i8 %self.i.i.i.12.i, ptr inttoptr (i16 78 to ptr), align 2
  br label %bb1.i.i.12.i

bb1.i.i.12.i:                                     ; preds = %bb1.i.i.12.i, %bb2.loopexit.11.i
  %77 = load volatile i8, ptr inttoptr (i16 77 to ptr), align 1
  %78 = icmp slt i8 %77, 0
  br i1 %78, label %_ZN12worduino_avr7ssd13065setup17h55abe6b12258d7e4E.exit, label %bb1.i.i.12.i

bb1.i.i.i:                                        ; preds = %bb1.i.i.i, %start
  %79 = load volatile i8, ptr inttoptr (i16 77 to ptr), align 1
  %80 = icmp slt i8 %79, 0
  br i1 %80, label %bb2.loopexit.i, label %bb1.i.i.i

_ZN12worduino_avr7ssd13065setup17h55abe6b12258d7e4E.exit: ; preds = %bb1.i.i.12.i
  %81 = load volatile i8, ptr inttoptr (i16 43 to ptr), align 1
  %82 = or i8 %81, 16
  store volatile i8 %82, ptr inttoptr (i16 43 to ptr), align 1
  %83 = load volatile i8, ptr inttoptr (i16 43 to ptr), align 1
  %84 = or i8 %83, 64
  store volatile i8 %84, ptr inttoptr (i16 43 to ptr), align 1
  call addrspace(0) void asm sideeffect alignstack "CLI", "~{sreg},~{memory}"() #12, !srcloc !346
  %85 = load volatile i8, ptr inttoptr (i16 145 to ptr), align 1
  %86 = or i8 %85, 11
  store volatile i8 %86, ptr inttoptr (i16 145 to ptr), align 1
  store volatile i16 4166, ptr inttoptr (i16 152 to ptr), align 8
  call addrspace(0) void asm sideeffect alignstack "SEI", "~{sreg},~{memory}"() #12, !srcloc !344
  call addrspace(1) void @llvm.lifetime.start.p0(i64 1154, ptr nonnull %engine)
  call addrspace(1) void @llvm.memset.p0.i16(ptr noundef nonnull align 1 dereferenceable(1024) %engine, i8 0, i16 1024, i1 false)
  %87 = getelementptr inbounds %"worduino_engine::engine::Engine<ArduboyPeripherals>", ptr %engine, i16 0, i32 2
  call addrspace(1) void @llvm.memset.p0.i64(ptr noundef nonnull align 1 dereferenceable(6) %87, i8 0, i64 6, i1 false), !noalias !347
  %_3.sroa.3.0..sroa_idx.i = getelementptr inbounds %"worduino_engine::engine::Engine<ArduboyPeripherals>", ptr %engine, i16 0, i32 4, i32 1
  store i8 2, ptr %_3.sroa.3.0..sroa_idx.i, align 1, !alias.scope !350, !noalias !347
  %88 = getelementptr inbounds %"worduino_engine::engine::Engine<ArduboyPeripherals>", ptr %engine, i16 0, i32 3
  store i8 0, ptr %88, align 1, !alias.scope !350, !noalias !347
  %89 = getelementptr inbounds %"worduino_engine::engine::Engine<ArduboyPeripherals>", ptr %engine, i16 0, i32 1
  store i16 1, ptr %89, align 1, !alias.scope !350, !noalias !347
  %iter.sroa.4.0.ptr.1.i.i = getelementptr inbounds [128 x i8], ptr %engine, i16 1
  %iter.sroa.4.0.ptr.2.i.i = getelementptr inbounds [128 x i8], ptr %engine, i16 2
  %iter.sroa.4.0.ptr.3.i.i = getelementptr inbounds [128 x i8], ptr %engine, i16 3
  %iter.sroa.4.0.ptr.4.i.i = getelementptr inbounds [128 x i8], ptr %engine, i16 4
  %iter.sroa.4.0.ptr.5.i.i = getelementptr inbounds [128 x i8], ptr %engine, i16 5
  %iter.sroa.4.0.ptr.6.i.i = getelementptr inbounds [128 x i8], ptr %engine, i16 6
  %iter.sroa.4.0.ptr.7.i.i = getelementptr inbounds [128 x i8], ptr %engine, i16 7
  %90 = getelementptr inbounds %"worduino_engine::engine::Engine<ArduboyPeripherals>", ptr %engine, i16 0, i32 4
  %91 = getelementptr inbounds %"worduino_engine::engine::Engine<ArduboyPeripherals>", ptr %engine, i16 0, i32 4, i32 0, i16 104
  %92 = getelementptr inbounds %"worduino_engine::engine::Engine<ArduboyPeripherals>", ptr %engine, i16 0, i32 4, i32 0, i16 106
  %93 = getelementptr inbounds %"worduino_engine::engine::Engine<ArduboyPeripherals>", ptr %engine, i16 0, i32 4, i32 0, i16 107
  %94 = getelementptr inbounds { ptr, ptr }, ptr %buffer.i.i.i.i1, i16 0, i32 1
  %95 = getelementptr inbounds %"worduino_engine::engine::Player", ptr %player.i.i, i16 0, i32 1
  %96 = getelementptr inbounds %"worduino_engine::engine::PlayerState::Camping", ptr %player.i.i, i16 0, i32 1
  %_1326.in.i.i.i.i = getelementptr inbounds %"worduino_engine::engine::Player", ptr %player.i.i, i16 0, i32 2
  %97 = getelementptr inbounds [8 x [128 x i8]], ptr %engine, i16 0, i16 7, i16 120
  %98 = getelementptr inbounds [8 x [128 x i8]], ptr %engine, i16 0, i16 7, i16 122
  %99 = getelementptr inbounds [8 x [128 x i8]], ptr %engine, i16 0, i16 7, i16 124
  %100 = getelementptr inbounds [8 x [128 x i8]], ptr %engine, i16 0, i16 7, i16 126
  %101 = getelementptr inbounds [8 x [128 x i8]], ptr %engine, i16 0, i16 2, i16 1
  %102 = getelementptr inbounds [8 x [128 x i8]], ptr %engine, i16 0, i16 2, i16 2
  %103 = getelementptr inbounds [8 x [128 x i8]], ptr %engine, i16 0, i16 2, i16 3
  %104 = getelementptr inbounds [8 x [128 x i8]], ptr %engine, i16 0, i16 2, i16 4
  %105 = getelementptr inbounds [8 x [128 x i8]], ptr %engine, i16 0, i16 2, i16 5
  %106 = getelementptr inbounds [8 x [128 x i8]], ptr %engine, i16 0, i16 2, i16 6
  %107 = getelementptr inbounds [8 x [128 x i8]], ptr %engine, i16 0, i16 2, i16 7
  %108 = getelementptr inbounds [8 x [128 x i8]], ptr %engine, i16 0, i16 2, i16 8
  %109 = getelementptr inbounds [8 x [128 x i8]], ptr %engine, i16 0, i16 2, i16 9
  %110 = getelementptr inbounds [8 x [128 x i8]], ptr %engine, i16 0, i16 4, i16 1
  %111 = getelementptr inbounds [8 x [128 x i8]], ptr %engine, i16 0, i16 4, i16 2
  %112 = getelementptr inbounds [8 x [128 x i8]], ptr %engine, i16 0, i16 4, i16 3
  %113 = getelementptr inbounds [8 x [128 x i8]], ptr %engine, i16 0, i16 4, i16 4
  %114 = getelementptr inbounds [8 x [128 x i8]], ptr %engine, i16 0, i16 4, i16 5
  %115 = getelementptr inbounds [8 x [128 x i8]], ptr %engine, i16 0, i16 4, i16 6
  %116 = getelementptr inbounds [8 x [128 x i8]], ptr %engine, i16 0, i16 4, i16 7
  %117 = getelementptr inbounds [8 x [128 x i8]], ptr %engine, i16 0, i16 4, i16 8
  %118 = getelementptr inbounds [8 x [128 x i8]], ptr %engine, i16 0, i16 4, i16 9
  %119 = getelementptr inbounds [8 x [128 x i8]], ptr %engine, i16 0, i16 2, i16 119
  %120 = getelementptr inbounds [8 x [128 x i8]], ptr %engine, i16 0, i16 2, i16 120
  %121 = getelementptr inbounds [8 x [128 x i8]], ptr %engine, i16 0, i16 2, i16 121
  %122 = getelementptr inbounds [8 x [128 x i8]], ptr %engine, i16 0, i16 2, i16 122
  %123 = getelementptr inbounds [8 x [128 x i8]], ptr %engine, i16 0, i16 2, i16 123
  %124 = getelementptr inbounds [8 x [128 x i8]], ptr %engine, i16 0, i16 2, i16 124
  %125 = getelementptr inbounds [8 x [128 x i8]], ptr %engine, i16 0, i16 2, i16 125
  %126 = getelementptr inbounds [8 x [128 x i8]], ptr %engine, i16 0, i16 2, i16 126
  %127 = getelementptr inbounds [8 x [128 x i8]], ptr %engine, i16 0, i16 2, i16 127
  %128 = getelementptr inbounds [8 x [128 x i8]], ptr %engine, i16 0, i16 4, i16 119
  %129 = getelementptr inbounds [8 x [128 x i8]], ptr %engine, i16 0, i16 4, i16 120
  %130 = getelementptr inbounds [8 x [128 x i8]], ptr %engine, i16 0, i16 4, i16 121
  %131 = getelementptr inbounds [8 x [128 x i8]], ptr %engine, i16 0, i16 4, i16 122
  %132 = getelementptr inbounds [8 x [128 x i8]], ptr %engine, i16 0, i16 4, i16 123
  %133 = getelementptr inbounds [8 x [128 x i8]], ptr %engine, i16 0, i16 4, i16 124
  %134 = getelementptr inbounds [8 x [128 x i8]], ptr %engine, i16 0, i16 4, i16 125
  %135 = getelementptr inbounds [8 x [128 x i8]], ptr %engine, i16 0, i16 4, i16 126
  %136 = getelementptr inbounds [8 x [128 x i8]], ptr %engine, i16 0, i16 4, i16 127
  %137 = getelementptr inbounds [8 x [128 x i8]], ptr %engine, i16 0, i16 3, i16 9
  %138 = getelementptr inbounds [8 x [128 x i8]], ptr %engine, i16 0, i16 3, i16 1
  %139 = getelementptr inbounds [8 x [128 x i8]], ptr %engine, i16 0, i16 3, i16 2
  %140 = getelementptr inbounds [8 x [128 x i8]], ptr %engine, i16 0, i16 3, i16 3
  %141 = getelementptr inbounds [8 x [128 x i8]], ptr %engine, i16 0, i16 3, i16 4
  %142 = getelementptr inbounds [8 x [128 x i8]], ptr %engine, i16 0, i16 3, i16 5
  %143 = getelementptr inbounds [8 x [128 x i8]], ptr %engine, i16 0, i16 3, i16 119
  %144 = getelementptr inbounds [8 x [128 x i8]], ptr %engine, i16 0, i16 3, i16 122
  %145 = getelementptr inbounds [8 x [128 x i8]], ptr %engine, i16 0, i16 3, i16 123
  %146 = getelementptr inbounds [8 x [128 x i8]], ptr %engine, i16 0, i16 3, i16 124
  %147 = getelementptr inbounds [8 x [128 x i8]], ptr %engine, i16 0, i16 3, i16 125
  %148 = getelementptr inbounds [8 x [128 x i8]], ptr %engine, i16 0, i16 3, i16 126
  %e.i.i.i = getelementptr inbounds %"worduino_engine::engine::Player", ptr %player.i.i, i16 0, i32 4
  %bullet.i.i.i = getelementptr inbounds %"worduino_engine::engine::Player", ptr %player.i.i, i16 0, i32 3
  %149 = getelementptr inbounds %"worduino_engine::engine::Player", ptr %player.i.i, i16 0, i32 4, i32 0, i32 1
  %150 = getelementptr inbounds %"worduino_engine::engine::Player", ptr %player.i.i, i16 0, i32 4, i32 1
  %frame.i.i.i = getelementptr inbounds %"worduino_engine::engine::PlayerState::Respawning", ptr %player.i.i, i16 0, i32 2
  %151 = getelementptr inbounds %"worduino_engine::engine::Player", ptr %player.i.i, i16 0, i32 3, i32 1
  %152 = getelementptr inbounds %"worduino_engine::engine::Player", ptr %player.i.i, i16 0, i32 3, i32 0, i16 1
  %_7.sroa.4.0._5.sroa_idx.i.i.i = getelementptr inbounds %"worduino_engine::engine::Engine<ArduboyPeripherals>", ptr %engine, i16 0, i32 2, i32 1
  %_7.sroa.5.0._5.sroa_idx.i.i.i = getelementptr inbounds %"worduino_engine::engine::Engine<ArduboyPeripherals>", ptr %engine, i16 0, i32 2, i32 2
  %_7.sroa.6.0._5.sroa_idx.i.i.i = getelementptr inbounds %"worduino_engine::engine::Engine<ArduboyPeripherals>", ptr %engine, i16 0, i32 2, i32 3
  %_7.sroa.7.0._5.sroa_idx.i.i.i = getelementptr inbounds %"worduino_engine::engine::Engine<ArduboyPeripherals>", ptr %engine, i16 0, i32 2, i32 4
  %_7.sroa.8.0._5.sroa_idx.i.i.i = getelementptr inbounds %"worduino_engine::engine::Engine<ArduboyPeripherals>", ptr %engine, i16 0, i32 2, i32 5
  %153 = getelementptr inbounds %"core::option::Option<((u8, u8), worduino_engine::draw::Orientation)>", ptr %_6.i.i.i.i, i16 0, i32 1
  %154 = getelementptr inbounds { i8, i8 }, ptr %_6.i.i.i.i, i16 0, i32 1
  %155 = getelementptr inbounds %"worduino_engine::engine::PlayerState::Respawning", ptr %player.i.i, i16 0, i32 2, i32 1
  %156 = getelementptr inbounds %"core::option::Option<((u8, u8), worduino_engine::draw::Orientation)>", ptr %_6.i.i68.i.i, i16 0, i32 1
  %157 = getelementptr inbounds { i8, i8 }, ptr %_6.i.i68.i.i, i16 0, i32 1
  %_145.sroa.4.0.monsters2.sroa_idx.i.i = getelementptr inbounds i8, ptr %monsters2.i.i, i16 2
  %_138.sroa.5.0..sroa_idx.i.i = getelementptr inbounds %"worduino_engine::engine::Engine<ArduboyPeripherals>", ptr %engine, i16 0, i32 4, i32 0, i16 2
  %monsters.sroa.6.i.sroa.4.0._54.sroa.0.sroa.5.0..sroa_idx.i.sroa_idx.i = getelementptr inbounds %"worduino_engine::engine::Engine<ArduboyPeripherals>", ptr %engine, i16 0, i32 4, i32 0, i16 13
  %monsters.sroa.9.i.sroa.4.0._54.sroa.0.sroa.7.0..sroa_idx.i.sroa_idx.i = getelementptr inbounds %"worduino_engine::engine::Engine<ArduboyPeripherals>", ptr %engine, i16 0, i32 4, i32 0, i16 26
  %_54.sroa.0.sroa.4.0..sroa_idx.i.i = getelementptr inbounds %"worduino_engine::engine::Engine<ArduboyPeripherals>", ptr %engine, i16 0, i32 4, i32 0, i16 10
  %_54.sroa.0.sroa.6.0..sroa_idx.i.i = getelementptr inbounds %"worduino_engine::engine::Engine<ArduboyPeripherals>", ptr %engine, i16 0, i32 4, i32 0, i16 23
  %_54.sroa.0.sroa.8.0..sroa_idx.i.i = getelementptr inbounds %"worduino_engine::engine::Engine<ArduboyPeripherals>", ptr %engine, i16 0, i32 4, i32 0, i16 36
  %_54.sroa.0.sroa.10.0..sroa_idx.i.i = getelementptr inbounds %"worduino_engine::engine::Engine<ArduboyPeripherals>", ptr %engine, i16 0, i32 4, i32 0, i16 49
  %_54.sroa.0.sroa.12.0..sroa_idx.i.i = getelementptr inbounds %"worduino_engine::engine::Engine<ArduboyPeripherals>", ptr %engine, i16 0, i32 4, i32 0, i16 62
  %_54.sroa.0.sroa.14.0..sroa_idx.i.i = getelementptr inbounds %"worduino_engine::engine::Engine<ArduboyPeripherals>", ptr %engine, i16 0, i32 4, i32 0, i16 75
  %_54.sroa.0.sroa.16.0..sroa_idx.i.i = getelementptr inbounds %"worduino_engine::engine::Engine<ArduboyPeripherals>", ptr %engine, i16 0, i32 4, i32 0, i16 88
  %_54.sroa.0.sroa.18.0..sroa_idx.i.i = getelementptr inbounds %"worduino_engine::engine::Engine<ArduboyPeripherals>", ptr %engine, i16 0, i32 4, i32 0, i16 101
  %158 = getelementptr inbounds %"core::option::Option<((u8, u8), worduino_engine::draw::Orientation)>", ptr %3, i16 0, i32 1
  %159 = getelementptr inbounds { i8, i8 }, ptr %3, i16 0, i32 1
  %160 = getelementptr inbounds %"core::option::Option<((u8, u8), worduino_engine::draw::Orientation)>", ptr %1, i16 0, i32 1
  %161 = getelementptr inbounds { i8, i8 }, ptr %1, i16 0, i32 1
  %monsters.sroa.0.i.i.sroa.4.0..sroa_idx = getelementptr inbounds %"worduino_engine::engine::Engine<ArduboyPeripherals>", ptr %engine, i16 0, i32 4, i32 0, i16 2
  %monsters.sroa.0.i.i.sroa.5.0..sroa_idx = getelementptr inbounds %"worduino_engine::engine::Engine<ArduboyPeripherals>", ptr %engine, i16 0, i32 4, i32 0, i16 3
  %monsters.sroa.0.i.i.sroa.7.0..sroa_idx = getelementptr inbounds %"worduino_engine::engine::Engine<ArduboyPeripherals>", ptr %engine, i16 0, i32 4, i32 0, i16 6
  %monsters.sroa.0.i.i.sroa.8.0..sroa_idx = getelementptr inbounds %"worduino_engine::engine::Engine<ArduboyPeripherals>", ptr %engine, i16 0, i32 4, i32 0, i16 7
  %monsters.sroa.0.i.i.sroa.8.sroa.4.0.monsters.sroa.0.i.i.sroa.8.0..sroa_idx.sroa_idx = getelementptr inbounds %"worduino_engine::engine::Engine<ArduboyPeripherals>", ptr %engine, i16 0, i32 4, i32 0, i16 8
  %monsters.sroa.0.i.i.sroa.8.sroa.5.0.monsters.sroa.0.i.i.sroa.8.0..sroa_idx.sroa_idx = getelementptr inbounds %"worduino_engine::engine::Engine<ArduboyPeripherals>", ptr %engine, i16 0, i32 4, i32 0, i16 9
  %monsters.sroa.6.i.sroa.4.i.sroa.4.0.monsters.sroa.6.i.sroa.4.0._54.sroa.0.sroa.5.0..sroa_idx.i.sroa_idx.i.sroa_idx = getelementptr inbounds %"worduino_engine::engine::Engine<ArduboyPeripherals>", ptr %engine, i16 0, i32 4, i32 0, i16 15
  %monsters.sroa.6.i.sroa.4.i.sroa.5.0.monsters.sroa.6.i.sroa.4.0._54.sroa.0.sroa.5.0..sroa_idx.i.sroa_idx.i.sroa_idx = getelementptr inbounds %"worduino_engine::engine::Engine<ArduboyPeripherals>", ptr %engine, i16 0, i32 4, i32 0, i16 16
  %monsters.sroa.6.i.sroa.4.i.sroa.7.0.monsters.sroa.6.i.sroa.4.0._54.sroa.0.sroa.5.0..sroa_idx.i.sroa_idx.i.sroa_idx = getelementptr inbounds %"worduino_engine::engine::Engine<ArduboyPeripherals>", ptr %engine, i16 0, i32 4, i32 0, i16 19
  %monsters.sroa.6.i.sroa.4.i.sroa.8.0.monsters.sroa.6.i.sroa.4.0._54.sroa.0.sroa.5.0..sroa_idx.i.sroa_idx.i.sroa_idx = getelementptr inbounds %"worduino_engine::engine::Engine<ArduboyPeripherals>", ptr %engine, i16 0, i32 4, i32 0, i16 20
  %monsters.sroa.6.i.sroa.4.i.sroa.8.sroa.4.0.monsters.sroa.6.i.sroa.4.i.sroa.8.0.monsters.sroa.6.i.sroa.4.0._54.sroa.0.sroa.5.0..sroa_idx.i.sroa_idx.i.sroa_idx.sroa_idx = getelementptr inbounds %"worduino_engine::engine::Engine<ArduboyPeripherals>", ptr %engine, i16 0, i32 4, i32 0, i16 21
  %monsters.sroa.6.i.sroa.4.i.sroa.8.sroa.5.0.monsters.sroa.6.i.sroa.4.i.sroa.8.0.monsters.sroa.6.i.sroa.4.0._54.sroa.0.sroa.5.0..sroa_idx.i.sroa_idx.i.sroa_idx.sroa_idx = getelementptr inbounds %"worduino_engine::engine::Engine<ArduboyPeripherals>", ptr %engine, i16 0, i32 4, i32 0, i16 22
  %monsters.sroa.9.i.sroa.4.i.sroa.4.0.monsters.sroa.9.i.sroa.4.0._54.sroa.0.sroa.7.0..sroa_idx.i.sroa_idx.i.sroa_idx = getelementptr inbounds %"worduino_engine::engine::Engine<ArduboyPeripherals>", ptr %engine, i16 0, i32 4, i32 0, i16 28
  %monsters.sroa.9.i.sroa.4.i.sroa.5.0.monsters.sroa.9.i.sroa.4.0._54.sroa.0.sroa.7.0..sroa_idx.i.sroa_idx.i.sroa_idx = getelementptr inbounds %"worduino_engine::engine::Engine<ArduboyPeripherals>", ptr %engine, i16 0, i32 4, i32 0, i16 29
  %monsters.sroa.9.i.sroa.4.i.sroa.7.0.monsters.sroa.9.i.sroa.4.0._54.sroa.0.sroa.7.0..sroa_idx.i.sroa_idx.i.sroa_idx = getelementptr inbounds %"worduino_engine::engine::Engine<ArduboyPeripherals>", ptr %engine, i16 0, i32 4, i32 0, i16 32
  %monsters.sroa.9.i.sroa.4.i.sroa.8.0.monsters.sroa.9.i.sroa.4.0._54.sroa.0.sroa.7.0..sroa_idx.i.sroa_idx.i.sroa_idx = getelementptr inbounds %"worduino_engine::engine::Engine<ArduboyPeripherals>", ptr %engine, i16 0, i32 4, i32 0, i16 33
  %monsters.sroa.9.i.sroa.4.i.sroa.8.sroa.4.0.monsters.sroa.9.i.sroa.4.i.sroa.8.0.monsters.sroa.9.i.sroa.4.0._54.sroa.0.sroa.7.0..sroa_idx.i.sroa_idx.i.sroa_idx.sroa_idx = getelementptr inbounds %"worduino_engine::engine::Engine<ArduboyPeripherals>", ptr %engine, i16 0, i32 4, i32 0, i16 34
  %monsters.sroa.9.i.sroa.4.i.sroa.8.sroa.5.0.monsters.sroa.9.i.sroa.4.i.sroa.8.0.monsters.sroa.9.i.sroa.4.0._54.sroa.0.sroa.7.0..sroa_idx.i.sroa_idx.i.sroa_idx.sroa_idx = getelementptr inbounds %"worduino_engine::engine::Engine<ArduboyPeripherals>", ptr %engine, i16 0, i32 4, i32 0, i16 35
  %_54.sroa.6.i.i.sroa.4.0..sroa_idx = getelementptr inbounds %"worduino_engine::engine::Engine<ArduboyPeripherals>", ptr %engine, i16 0, i32 4, i32 0, i16 111
  %_54.sroa.6.i.i.sroa.5.0..sroa_idx = getelementptr inbounds %"worduino_engine::engine::Engine<ArduboyPeripherals>", ptr %engine, i16 0, i32 4, i32 0, i16 113
  %_54.sroa.6.i.i.sroa.6414.0..sroa_idx = getelementptr inbounds %"worduino_engine::engine::Engine<ArduboyPeripherals>", ptr %engine, i16 0, i32 4, i32 0, i16 116
  %_54.sroa.6.i.i.sroa.7.0..sroa_idx = getelementptr inbounds %"worduino_engine::engine::Engine<ArduboyPeripherals>", ptr %engine, i16 0, i32 4, i32 0, i16 117
  %_54.sroa.6.i.i.sroa.8.0..sroa_idx = getelementptr inbounds %"worduino_engine::engine::Engine<ArduboyPeripherals>", ptr %engine, i16 0, i32 4, i32 0, i16 118
  %_54.sroa.6.i.i.sroa.9.0..sroa_idx = getelementptr inbounds %"worduino_engine::engine::Engine<ArduboyPeripherals>", ptr %engine, i16 0, i32 4, i32 0, i16 119
  br label %bb7

bb7:                                              ; preds = %_ZN12worduino_avr5timer10wait_frame17h90f28cd6a52a3975E.exit, %_ZN12worduino_avr7ssd13065setup17h55abe6b12258d7e4E.exit
  call addrspace(0) void asm sideeffect alignstack "CLI", "~{sreg},~{memory}"() #12, !srcloc !346
  call addrspace(1) void @llvm.experimental.noalias.scope.decl(metadata !352)
  %162 = load volatile i8, ptr inttoptr (i16 43 to ptr), align 1
  %163 = and i8 %162, -65
  store volatile i8 %163, ptr inttoptr (i16 43 to ptr), align 1
  br label %"_ZN91_$LT$core..slice..iter..Iter$LT$T$GT$$u20$as$u20$core..iter..traits..iterator..Iterator$GT$4next17h766a6dc07d15145dE.exit.i.i"

"_ZN91_$LT$core..slice..iter..Iter$LT$T$GT$$u20$as$u20$core..iter..traits..iterator..Iterator$GT$4next17h766a6dc07d15145dE.exit.1.i.i": ; preds = %bb8.loopexit.i.i, %bb8.loopexit.1.i.i
  %iter1.sroa.4.0.ptr14.1.i.i = phi ptr [ %iter1.sroa.4.0.ptr.1.i.i, %bb8.loopexit.1.i.i ], [ %iter.sroa.4.0.ptr.1.i.i, %bb8.loopexit.i.i ]
  %iter1.sroa.4.0.idx13.1.i.i = phi i16 [ %iter1.sroa.4.0.add.1.i.i, %bb8.loopexit.1.i.i ], [ 0, %bb8.loopexit.i.i ]
  %_19.1.i.i = load i8, ptr %iter1.sroa.4.0.ptr14.1.i.i, align 1, !alias.scope !355
  store volatile i8 %_19.1.i.i, ptr inttoptr (i16 78 to ptr), align 2
  br label %bb1.i.i.1.i.i

bb1.i.i.1.i.i:                                    ; preds = %bb1.i.i.1.i.i, %"_ZN91_$LT$core..slice..iter..Iter$LT$T$GT$$u20$as$u20$core..iter..traits..iterator..Iterator$GT$4next17h766a6dc07d15145dE.exit.1.i.i"
  %164 = load volatile i8, ptr inttoptr (i16 77 to ptr), align 1
  %165 = icmp slt i8 %164, 0
  br i1 %165, label %bb8.loopexit.1.i.i, label %bb1.i.i.1.i.i

bb8.loopexit.1.i.i:                               ; preds = %bb1.i.i.1.i.i
  %iter1.sroa.4.0.add.1.i.i = add nuw nsw i16 %iter1.sroa.4.0.idx13.1.i.i, 1
  %iter1.sroa.4.0.ptr.1.i.i = getelementptr inbounds i8, ptr %iter.sroa.4.0.ptr.1.i.i, i16 %iter1.sroa.4.0.add.1.i.i
  %_10.i4.1.i.i = icmp eq i16 %iter1.sroa.4.0.add.1.i.i, 128
  br i1 %_10.i4.1.i.i, label %"_ZN91_$LT$core..slice..iter..Iter$LT$T$GT$$u20$as$u20$core..iter..traits..iterator..Iterator$GT$4next17h766a6dc07d15145dE.exit.2.i.i", label %"_ZN91_$LT$core..slice..iter..Iter$LT$T$GT$$u20$as$u20$core..iter..traits..iterator..Iterator$GT$4next17h766a6dc07d15145dE.exit.1.i.i"

"_ZN91_$LT$core..slice..iter..Iter$LT$T$GT$$u20$as$u20$core..iter..traits..iterator..Iterator$GT$4next17h766a6dc07d15145dE.exit.2.i.i": ; preds = %bb8.loopexit.1.i.i, %bb8.loopexit.2.i.i
  %iter1.sroa.4.0.ptr14.2.i.i = phi ptr [ %iter1.sroa.4.0.ptr.2.i.i, %bb8.loopexit.2.i.i ], [ %iter.sroa.4.0.ptr.2.i.i, %bb8.loopexit.1.i.i ]
  %iter1.sroa.4.0.idx13.2.i.i = phi i16 [ %iter1.sroa.4.0.add.2.i.i, %bb8.loopexit.2.i.i ], [ 0, %bb8.loopexit.1.i.i ]
  %_19.2.i.i = load i8, ptr %iter1.sroa.4.0.ptr14.2.i.i, align 1, !alias.scope !355
  store volatile i8 %_19.2.i.i, ptr inttoptr (i16 78 to ptr), align 2
  br label %bb1.i.i.2.i.i

bb1.i.i.2.i.i:                                    ; preds = %bb1.i.i.2.i.i, %"_ZN91_$LT$core..slice..iter..Iter$LT$T$GT$$u20$as$u20$core..iter..traits..iterator..Iterator$GT$4next17h766a6dc07d15145dE.exit.2.i.i"
  %166 = load volatile i8, ptr inttoptr (i16 77 to ptr), align 1
  %167 = icmp slt i8 %166, 0
  br i1 %167, label %bb8.loopexit.2.i.i, label %bb1.i.i.2.i.i

bb8.loopexit.2.i.i:                               ; preds = %bb1.i.i.2.i.i
  %iter1.sroa.4.0.add.2.i.i = add nuw nsw i16 %iter1.sroa.4.0.idx13.2.i.i, 1
  %iter1.sroa.4.0.ptr.2.i.i = getelementptr inbounds i8, ptr %iter.sroa.4.0.ptr.2.i.i, i16 %iter1.sroa.4.0.add.2.i.i
  %_10.i4.2.i.i = icmp eq i16 %iter1.sroa.4.0.add.2.i.i, 128
  br i1 %_10.i4.2.i.i, label %"_ZN91_$LT$core..slice..iter..Iter$LT$T$GT$$u20$as$u20$core..iter..traits..iterator..Iterator$GT$4next17h766a6dc07d15145dE.exit.3.i.i", label %"_ZN91_$LT$core..slice..iter..Iter$LT$T$GT$$u20$as$u20$core..iter..traits..iterator..Iterator$GT$4next17h766a6dc07d15145dE.exit.2.i.i"

"_ZN91_$LT$core..slice..iter..Iter$LT$T$GT$$u20$as$u20$core..iter..traits..iterator..Iterator$GT$4next17h766a6dc07d15145dE.exit.3.i.i": ; preds = %bb8.loopexit.2.i.i, %bb8.loopexit.3.i.i
  %iter1.sroa.4.0.ptr14.3.i.i = phi ptr [ %iter1.sroa.4.0.ptr.3.i.i, %bb8.loopexit.3.i.i ], [ %iter.sroa.4.0.ptr.3.i.i, %bb8.loopexit.2.i.i ]
  %iter1.sroa.4.0.idx13.3.i.i = phi i16 [ %iter1.sroa.4.0.add.3.i.i, %bb8.loopexit.3.i.i ], [ 0, %bb8.loopexit.2.i.i ]
  %_19.3.i.i = load i8, ptr %iter1.sroa.4.0.ptr14.3.i.i, align 1, !alias.scope !355
  store volatile i8 %_19.3.i.i, ptr inttoptr (i16 78 to ptr), align 2
  br label %bb1.i.i.3.i.i

bb1.i.i.3.i.i:                                    ; preds = %bb1.i.i.3.i.i, %"_ZN91_$LT$core..slice..iter..Iter$LT$T$GT$$u20$as$u20$core..iter..traits..iterator..Iterator$GT$4next17h766a6dc07d15145dE.exit.3.i.i"
  %168 = load volatile i8, ptr inttoptr (i16 77 to ptr), align 1
  %169 = icmp slt i8 %168, 0
  br i1 %169, label %bb8.loopexit.3.i.i, label %bb1.i.i.3.i.i

bb8.loopexit.3.i.i:                               ; preds = %bb1.i.i.3.i.i
  %iter1.sroa.4.0.add.3.i.i = add nuw nsw i16 %iter1.sroa.4.0.idx13.3.i.i, 1
  %iter1.sroa.4.0.ptr.3.i.i = getelementptr inbounds i8, ptr %iter.sroa.4.0.ptr.3.i.i, i16 %iter1.sroa.4.0.add.3.i.i
  %_10.i4.3.i.i = icmp eq i16 %iter1.sroa.4.0.add.3.i.i, 128
  br i1 %_10.i4.3.i.i, label %"_ZN91_$LT$core..slice..iter..Iter$LT$T$GT$$u20$as$u20$core..iter..traits..iterator..Iterator$GT$4next17h766a6dc07d15145dE.exit.4.i.i", label %"_ZN91_$LT$core..slice..iter..Iter$LT$T$GT$$u20$as$u20$core..iter..traits..iterator..Iterator$GT$4next17h766a6dc07d15145dE.exit.3.i.i"

"_ZN91_$LT$core..slice..iter..Iter$LT$T$GT$$u20$as$u20$core..iter..traits..iterator..Iterator$GT$4next17h766a6dc07d15145dE.exit.4.i.i": ; preds = %bb8.loopexit.3.i.i, %bb8.loopexit.4.i.i
  %iter1.sroa.4.0.ptr14.4.i.i = phi ptr [ %iter1.sroa.4.0.ptr.4.i.i, %bb8.loopexit.4.i.i ], [ %iter.sroa.4.0.ptr.4.i.i, %bb8.loopexit.3.i.i ]
  %iter1.sroa.4.0.idx13.4.i.i = phi i16 [ %iter1.sroa.4.0.add.4.i.i, %bb8.loopexit.4.i.i ], [ 0, %bb8.loopexit.3.i.i ]
  %_19.4.i.i = load i8, ptr %iter1.sroa.4.0.ptr14.4.i.i, align 1, !alias.scope !355
  store volatile i8 %_19.4.i.i, ptr inttoptr (i16 78 to ptr), align 2
  br label %bb1.i.i.4.i.i

bb1.i.i.4.i.i:                                    ; preds = %bb1.i.i.4.i.i, %"_ZN91_$LT$core..slice..iter..Iter$LT$T$GT$$u20$as$u20$core..iter..traits..iterator..Iterator$GT$4next17h766a6dc07d15145dE.exit.4.i.i"
  %170 = load volatile i8, ptr inttoptr (i16 77 to ptr), align 1
  %171 = icmp slt i8 %170, 0
  br i1 %171, label %bb8.loopexit.4.i.i, label %bb1.i.i.4.i.i

bb8.loopexit.4.i.i:                               ; preds = %bb1.i.i.4.i.i
  %iter1.sroa.4.0.add.4.i.i = add nuw nsw i16 %iter1.sroa.4.0.idx13.4.i.i, 1
  %iter1.sroa.4.0.ptr.4.i.i = getelementptr inbounds i8, ptr %iter.sroa.4.0.ptr.4.i.i, i16 %iter1.sroa.4.0.add.4.i.i
  %_10.i4.4.i.i = icmp eq i16 %iter1.sroa.4.0.add.4.i.i, 128
  br i1 %_10.i4.4.i.i, label %"_ZN91_$LT$core..slice..iter..Iter$LT$T$GT$$u20$as$u20$core..iter..traits..iterator..Iterator$GT$4next17h766a6dc07d15145dE.exit.5.i.i", label %"_ZN91_$LT$core..slice..iter..Iter$LT$T$GT$$u20$as$u20$core..iter..traits..iterator..Iterator$GT$4next17h766a6dc07d15145dE.exit.4.i.i"

"_ZN91_$LT$core..slice..iter..Iter$LT$T$GT$$u20$as$u20$core..iter..traits..iterator..Iterator$GT$4next17h766a6dc07d15145dE.exit.5.i.i": ; preds = %bb8.loopexit.4.i.i, %bb8.loopexit.5.i.i
  %iter1.sroa.4.0.ptr14.5.i.i = phi ptr [ %iter1.sroa.4.0.ptr.5.i.i, %bb8.loopexit.5.i.i ], [ %iter.sroa.4.0.ptr.5.i.i, %bb8.loopexit.4.i.i ]
  %iter1.sroa.4.0.idx13.5.i.i = phi i16 [ %iter1.sroa.4.0.add.5.i.i, %bb8.loopexit.5.i.i ], [ 0, %bb8.loopexit.4.i.i ]
  %_19.5.i.i = load i8, ptr %iter1.sroa.4.0.ptr14.5.i.i, align 1, !alias.scope !355
  store volatile i8 %_19.5.i.i, ptr inttoptr (i16 78 to ptr), align 2
  br label %bb1.i.i.5.i.i

bb1.i.i.5.i.i:                                    ; preds = %bb1.i.i.5.i.i, %"_ZN91_$LT$core..slice..iter..Iter$LT$T$GT$$u20$as$u20$core..iter..traits..iterator..Iterator$GT$4next17h766a6dc07d15145dE.exit.5.i.i"
  %172 = load volatile i8, ptr inttoptr (i16 77 to ptr), align 1
  %173 = icmp slt i8 %172, 0
  br i1 %173, label %bb8.loopexit.5.i.i, label %bb1.i.i.5.i.i

bb8.loopexit.5.i.i:                               ; preds = %bb1.i.i.5.i.i
  %iter1.sroa.4.0.add.5.i.i = add nuw nsw i16 %iter1.sroa.4.0.idx13.5.i.i, 1
  %iter1.sroa.4.0.ptr.5.i.i = getelementptr inbounds i8, ptr %iter.sroa.4.0.ptr.5.i.i, i16 %iter1.sroa.4.0.add.5.i.i
  %_10.i4.5.i.i = icmp eq i16 %iter1.sroa.4.0.add.5.i.i, 128
  br i1 %_10.i4.5.i.i, label %"_ZN91_$LT$core..slice..iter..Iter$LT$T$GT$$u20$as$u20$core..iter..traits..iterator..Iterator$GT$4next17h766a6dc07d15145dE.exit.6.i.i", label %"_ZN91_$LT$core..slice..iter..Iter$LT$T$GT$$u20$as$u20$core..iter..traits..iterator..Iterator$GT$4next17h766a6dc07d15145dE.exit.5.i.i"

"_ZN91_$LT$core..slice..iter..Iter$LT$T$GT$$u20$as$u20$core..iter..traits..iterator..Iterator$GT$4next17h766a6dc07d15145dE.exit.6.i.i": ; preds = %bb8.loopexit.5.i.i, %bb8.loopexit.6.i.i
  %iter1.sroa.4.0.ptr14.6.i.i = phi ptr [ %iter1.sroa.4.0.ptr.6.i.i, %bb8.loopexit.6.i.i ], [ %iter.sroa.4.0.ptr.6.i.i, %bb8.loopexit.5.i.i ]
  %iter1.sroa.4.0.idx13.6.i.i = phi i16 [ %iter1.sroa.4.0.add.6.i.i, %bb8.loopexit.6.i.i ], [ 0, %bb8.loopexit.5.i.i ]
  %_19.6.i.i = load i8, ptr %iter1.sroa.4.0.ptr14.6.i.i, align 1, !alias.scope !355
  store volatile i8 %_19.6.i.i, ptr inttoptr (i16 78 to ptr), align 2
  br label %bb1.i.i.6.i.i

bb1.i.i.6.i.i:                                    ; preds = %bb1.i.i.6.i.i, %"_ZN91_$LT$core..slice..iter..Iter$LT$T$GT$$u20$as$u20$core..iter..traits..iterator..Iterator$GT$4next17h766a6dc07d15145dE.exit.6.i.i"
  %174 = load volatile i8, ptr inttoptr (i16 77 to ptr), align 1
  %175 = icmp slt i8 %174, 0
  br i1 %175, label %bb8.loopexit.6.i.i, label %bb1.i.i.6.i.i

bb8.loopexit.6.i.i:                               ; preds = %bb1.i.i.6.i.i
  %iter1.sroa.4.0.add.6.i.i = add nuw nsw i16 %iter1.sroa.4.0.idx13.6.i.i, 1
  %iter1.sroa.4.0.ptr.6.i.i = getelementptr inbounds i8, ptr %iter.sroa.4.0.ptr.6.i.i, i16 %iter1.sroa.4.0.add.6.i.i
  %_10.i4.6.i.i = icmp eq i16 %iter1.sroa.4.0.add.6.i.i, 128
  br i1 %_10.i4.6.i.i, label %"_ZN91_$LT$core..slice..iter..Iter$LT$T$GT$$u20$as$u20$core..iter..traits..iterator..Iterator$GT$4next17h766a6dc07d15145dE.exit.7.i.i", label %"_ZN91_$LT$core..slice..iter..Iter$LT$T$GT$$u20$as$u20$core..iter..traits..iterator..Iterator$GT$4next17h766a6dc07d15145dE.exit.6.i.i"

"_ZN91_$LT$core..slice..iter..Iter$LT$T$GT$$u20$as$u20$core..iter..traits..iterator..Iterator$GT$4next17h766a6dc07d15145dE.exit.7.i.i": ; preds = %bb8.loopexit.6.i.i, %bb8.loopexit.7.i.i
  %iter1.sroa.4.0.ptr14.7.i.i = phi ptr [ %iter1.sroa.4.0.ptr.7.i.i, %bb8.loopexit.7.i.i ], [ %iter.sroa.4.0.ptr.7.i.i, %bb8.loopexit.6.i.i ]
  %iter1.sroa.4.0.idx13.7.i.i = phi i16 [ %iter1.sroa.4.0.add.7.i.i, %bb8.loopexit.7.i.i ], [ 0, %bb8.loopexit.6.i.i ]
  %_19.7.i.i = load i8, ptr %iter1.sroa.4.0.ptr14.7.i.i, align 1, !alias.scope !355
  store volatile i8 %_19.7.i.i, ptr inttoptr (i16 78 to ptr), align 2
  br label %bb1.i.i.7.i.i

bb1.i.i.7.i.i:                                    ; preds = %bb1.i.i.7.i.i, %"_ZN91_$LT$core..slice..iter..Iter$LT$T$GT$$u20$as$u20$core..iter..traits..iterator..Iterator$GT$4next17h766a6dc07d15145dE.exit.7.i.i"
  %176 = load volatile i8, ptr inttoptr (i16 77 to ptr), align 1
  %177 = icmp slt i8 %176, 0
  br i1 %177, label %bb8.loopexit.7.i.i, label %bb1.i.i.7.i.i

bb8.loopexit.7.i.i:                               ; preds = %bb1.i.i.7.i.i
  %iter1.sroa.4.0.add.7.i.i = add nuw nsw i16 %iter1.sroa.4.0.idx13.7.i.i, 1
  %iter1.sroa.4.0.ptr.7.i.i = getelementptr inbounds i8, ptr %iter.sroa.4.0.ptr.7.i.i, i16 %iter1.sroa.4.0.add.7.i.i
  %_10.i4.7.i.i = icmp eq i16 %iter1.sroa.4.0.add.7.i.i, 128
  br i1 %_10.i4.7.i.i, label %_ZN12worduino_avr7ssd13064send17h35df484245b4434aE.exit.i, label %"_ZN91_$LT$core..slice..iter..Iter$LT$T$GT$$u20$as$u20$core..iter..traits..iterator..Iterator$GT$4next17h766a6dc07d15145dE.exit.7.i.i"

bb8.loopexit.i.i:                                 ; preds = %bb1.i.i.i.i
  %iter1.sroa.4.0.add.i.i = add nuw nsw i16 %iter1.sroa.4.0.idx13.i.i, 1
  %iter1.sroa.4.0.ptr.i.i = getelementptr inbounds i8, ptr %engine, i16 %iter1.sroa.4.0.add.i.i
  %_10.i4.i.i = icmp eq i16 %iter1.sroa.4.0.add.i.i, 128
  br i1 %_10.i4.i.i, label %"_ZN91_$LT$core..slice..iter..Iter$LT$T$GT$$u20$as$u20$core..iter..traits..iterator..Iterator$GT$4next17h766a6dc07d15145dE.exit.1.i.i", label %"_ZN91_$LT$core..slice..iter..Iter$LT$T$GT$$u20$as$u20$core..iter..traits..iterator..Iterator$GT$4next17h766a6dc07d15145dE.exit.i.i"

"_ZN91_$LT$core..slice..iter..Iter$LT$T$GT$$u20$as$u20$core..iter..traits..iterator..Iterator$GT$4next17h766a6dc07d15145dE.exit.i.i": ; preds = %bb8.loopexit.i.i, %bb7
  %iter1.sroa.4.0.ptr14.i.i = phi ptr [ %engine, %bb7 ], [ %iter1.sroa.4.0.ptr.i.i, %bb8.loopexit.i.i ]
  %iter1.sroa.4.0.idx13.i.i = phi i16 [ 0, %bb7 ], [ %iter1.sroa.4.0.add.i.i, %bb8.loopexit.i.i ]
  %_19.i.i = load i8, ptr %iter1.sroa.4.0.ptr14.i.i, align 1, !alias.scope !355
  store volatile i8 %_19.i.i, ptr inttoptr (i16 78 to ptr), align 2
  br label %bb1.i.i.i.i

bb1.i.i.i.i:                                      ; preds = %bb1.i.i.i.i, %"_ZN91_$LT$core..slice..iter..Iter$LT$T$GT$$u20$as$u20$core..iter..traits..iterator..Iterator$GT$4next17h766a6dc07d15145dE.exit.i.i"
  %178 = load volatile i8, ptr inttoptr (i16 77 to ptr), align 1
  %179 = icmp slt i8 %178, 0
  br i1 %179, label %bb8.loopexit.i.i, label %bb1.i.i.i.i

_ZN12worduino_avr7ssd13064send17h35df484245b4434aE.exit.i: ; preds = %bb8.loopexit.7.i.i
  %180 = load volatile i8, ptr inttoptr (i16 43 to ptr), align 1
  %181 = or i8 %180, 64
  store volatile i8 %181, ptr inttoptr (i16 43 to ptr), align 1
  call addrspace(1) void @llvm.experimental.noalias.scope.decl(metadata !358)
  call addrspace(1) void @llvm.memset.p0.i64(ptr noundef nonnull align 1 dereferenceable(1024) %engine, i8 0, i64 1024, i1 false), !alias.scope !361
  %182 = load i8, ptr %_3.sroa.3.0..sroa_idx.i, align 1, !range !366, !alias.scope !367, !noundef !368
  %183 = icmp ugt i8 %182, 1
  %184 = add nsw i8 %182, -2
  %narrow.i.i = select i1 %183, i8 %184, i8 1
  switch i8 %narrow.i.i, label %bb3.i.i [
    i8 0, label %.noexc5
    i8 1, label %bb2.i.i
    i8 2, label %bb9
  ]

bb3.i.i:                                          ; preds = %_ZN12worduino_avr7ssd13064send17h35df484245b4434aE.exit.i
  unreachable

.noexc5:                                          ; preds = %_ZN12worduino_avr7ssd13064send17h35df484245b4434aE.exit.i
  %_3.i.i.i = load i16, ptr %89, align 1, !alias.scope !369
  %lsb.i.i.i = and i16 %_3.i.i.i, 1
  %185 = lshr i16 %_3.i.i.i, 1
  %186 = icmp eq i16 %lsb.i.i.i, 0
  %187 = xor i16 %185, -12280
  %spec.select.i108.i.i = select i1 %186, i16 %185, i16 %187
  %lsb.i110.i.i = and i16 %spec.select.i108.i.i, 1
  %188 = lshr i16 %spec.select.i108.i.i, 1
  %189 = icmp eq i16 %lsb.i110.i.i, 0
  %190 = xor i16 %188, -12280
  %spec.select.i111.i.i = select i1 %189, i16 %188, i16 %190
  %_28.i.i = urem i16 %spec.select.i111.i.i, 6
  %_27.i.i = trunc i16 %_28.i.i to i8
  %_26.i.i = mul nuw nsw i8 %_27.i.i, 10
  %y.i.i = add nuw nsw i8 %_26.i.i, 3
  %_20.i.i = urem i16 %spec.select.i108.i.i, 11
  %_19.i1.i = trunc i16 %_20.i.i to i8
  %_18.i.i = mul nuw nsw i8 %_19.i1.i, 10
  %x.i.i = add nuw nsw i8 %_18.i.i, 10
  %lsb.i.1.i.i = and i16 %spec.select.i111.i.i, 1
  %191 = lshr i16 %spec.select.i111.i.i, 1
  %192 = icmp eq i16 %lsb.i.1.i.i, 0
  %193 = xor i16 %191, -12280
  %spec.select.i108.1.i.i = select i1 %192, i16 %191, i16 %193
  %lsb.i110.1.i.i = and i16 %spec.select.i108.1.i.i, 1
  %194 = lshr i16 %spec.select.i108.1.i.i, 1
  %195 = icmp eq i16 %lsb.i110.1.i.i, 0
  %196 = xor i16 %194, -12280
  %spec.select.i111.1.i.i = select i1 %195, i16 %194, i16 %196
  %_28.1.i.i = urem i16 %spec.select.i111.1.i.i, 6
  %_27.1.i.i = trunc i16 %_28.1.i.i to i8
  %_26.1.i.i = mul nuw nsw i8 %_27.1.i.i, 10
  %y.1.i.i = add nuw nsw i8 %_26.1.i.i, 3
  %_20.1.i.i = urem i16 %spec.select.i108.1.i.i, 11
  %_19.1.i2.i = trunc i16 %_20.1.i.i to i8
  %_18.1.i.i = mul nuw nsw i8 %_19.1.i2.i, 10
  %x.1.i.i = add nuw nsw i8 %_18.1.i.i, 10
  %lsb.i.2.i.i = and i16 %spec.select.i111.1.i.i, 1
  %197 = lshr i16 %spec.select.i111.1.i.i, 1
  %198 = icmp eq i16 %lsb.i.2.i.i, 0
  %199 = xor i16 %197, -12280
  %spec.select.i108.2.i.i = select i1 %198, i16 %197, i16 %199
  %lsb.i110.2.i.i = and i16 %spec.select.i108.2.i.i, 1
  %200 = lshr i16 %spec.select.i108.2.i.i, 1
  %201 = icmp eq i16 %lsb.i110.2.i.i, 0
  %202 = xor i16 %200, -12280
  %spec.select.i111.2.i.i = select i1 %201, i16 %200, i16 %202
  store i16 %spec.select.i111.2.i.i, ptr %89, align 1, !alias.scope !372
  %_28.2.i.i = urem i16 %spec.select.i111.2.i.i, 6
  %_27.2.i.i = trunc i16 %_28.2.i.i to i8
  %_26.2.i.i = mul nuw nsw i8 %_27.2.i.i, 10
  %y.2.i.i = add nuw nsw i8 %_26.2.i.i, 3
  %_20.2.i.i = urem i16 %spec.select.i108.2.i.i, 11
  %_19.2.i3.i = trunc i16 %_20.2.i.i to i8
  %_18.2.i.i = mul nuw nsw i8 %_19.2.i3.i, 10
  %x.2.i.i = add nuw nsw i8 %_18.2.i.i, 10
  store ptr @_ZN15worduino_engine6assets8MONSTER16FRAMES5VALUE17h00782a2a99a046c0E, ptr %90, align 1
  store i8 0, ptr %monsters.sroa.0.i.i.sroa.4.0..sroa_idx, align 1
  store i8 0, ptr %monsters.sroa.0.i.i.sroa.5.0..sroa_idx, align 1
  store i8 4, ptr %monsters.sroa.0.i.i.sroa.7.0..sroa_idx, align 1
  store i8 %x.i.i, ptr %monsters.sroa.0.i.i.sroa.8.0..sroa_idx, align 1
  store i8 %y.i.i, ptr %monsters.sroa.0.i.i.sroa.8.sroa.4.0.monsters.sroa.0.i.i.sroa.8.0..sroa_idx.sroa_idx, align 1
  store i8 1, ptr %monsters.sroa.0.i.i.sroa.8.sroa.5.0.monsters.sroa.0.i.i.sroa.8.0..sroa_idx.sroa_idx, align 1
  store ptr @_ZN15worduino_engine6assets8MONSTER26FRAMES5VALUE17h7f709773125f6cafE, ptr %monsters.sroa.6.i.sroa.4.0._54.sroa.0.sroa.5.0..sroa_idx.i.sroa_idx.i, align 1
  store i8 0, ptr %monsters.sroa.6.i.sroa.4.i.sroa.4.0.monsters.sroa.6.i.sroa.4.0._54.sroa.0.sroa.5.0..sroa_idx.i.sroa_idx.i.sroa_idx, align 1
  store i8 0, ptr %monsters.sroa.6.i.sroa.4.i.sroa.5.0.monsters.sroa.6.i.sroa.4.0._54.sroa.0.sroa.5.0..sroa_idx.i.sroa_idx.i.sroa_idx, align 1
  store i8 4, ptr %monsters.sroa.6.i.sroa.4.i.sroa.7.0.monsters.sroa.6.i.sroa.4.0._54.sroa.0.sroa.5.0..sroa_idx.i.sroa_idx.i.sroa_idx, align 1
  store i8 %x.1.i.i, ptr %monsters.sroa.6.i.sroa.4.i.sroa.8.0.monsters.sroa.6.i.sroa.4.0._54.sroa.0.sroa.5.0..sroa_idx.i.sroa_idx.i.sroa_idx, align 1
  store i8 %y.1.i.i, ptr %monsters.sroa.6.i.sroa.4.i.sroa.8.sroa.4.0.monsters.sroa.6.i.sroa.4.i.sroa.8.0.monsters.sroa.6.i.sroa.4.0._54.sroa.0.sroa.5.0..sroa_idx.i.sroa_idx.i.sroa_idx.sroa_idx, align 1
  store i8 1, ptr %monsters.sroa.6.i.sroa.4.i.sroa.8.sroa.5.0.monsters.sroa.6.i.sroa.4.i.sroa.8.0.monsters.sroa.6.i.sroa.4.0._54.sroa.0.sroa.5.0..sroa_idx.i.sroa_idx.i.sroa_idx.sroa_idx, align 1
  store ptr @_ZN15worduino_engine6assets8MONSTER36FRAMES5VALUE17hecd487d1de70fbbdE, ptr %monsters.sroa.9.i.sroa.4.0._54.sroa.0.sroa.7.0..sroa_idx.i.sroa_idx.i, align 1
  store i8 0, ptr %monsters.sroa.9.i.sroa.4.i.sroa.4.0.monsters.sroa.9.i.sroa.4.0._54.sroa.0.sroa.7.0..sroa_idx.i.sroa_idx.i.sroa_idx, align 1
  store i8 0, ptr %monsters.sroa.9.i.sroa.4.i.sroa.5.0.monsters.sroa.9.i.sroa.4.0._54.sroa.0.sroa.7.0..sroa_idx.i.sroa_idx.i.sroa_idx, align 1
  store i8 4, ptr %monsters.sroa.9.i.sroa.4.i.sroa.7.0.monsters.sroa.9.i.sroa.4.0._54.sroa.0.sroa.7.0..sroa_idx.i.sroa_idx.i.sroa_idx, align 1
  store i8 %x.2.i.i, ptr %monsters.sroa.9.i.sroa.4.i.sroa.8.0.monsters.sroa.9.i.sroa.4.0._54.sroa.0.sroa.7.0..sroa_idx.i.sroa_idx.i.sroa_idx, align 1
  store i8 %y.2.i.i, ptr %monsters.sroa.9.i.sroa.4.i.sroa.8.sroa.4.0.monsters.sroa.9.i.sroa.4.i.sroa.8.0.monsters.sroa.9.i.sroa.4.0._54.sroa.0.sroa.7.0..sroa_idx.i.sroa_idx.i.sroa_idx.sroa_idx, align 1
  store i8 1, ptr %monsters.sroa.9.i.sroa.4.i.sroa.8.sroa.5.0.monsters.sroa.9.i.sroa.4.i.sroa.8.0.monsters.sroa.9.i.sroa.4.0._54.sroa.0.sroa.7.0..sroa_idx.i.sroa_idx.i.sroa_idx.sroa_idx, align 1
  store i8 0, ptr %_54.sroa.0.sroa.4.0..sroa_idx.i.i, align 1, !alias.scope !367
  store i8 0, ptr %_54.sroa.0.sroa.6.0..sroa_idx.i.i, align 1, !alias.scope !367
  store i8 0, ptr %_54.sroa.0.sroa.8.0..sroa_idx.i.i, align 1, !alias.scope !367
  store i8 2, ptr %_54.sroa.0.sroa.10.0..sroa_idx.i.i, align 1, !alias.scope !367
  store i8 2, ptr %_54.sroa.0.sroa.12.0..sroa_idx.i.i, align 1, !alias.scope !367
  store i8 2, ptr %_54.sroa.0.sroa.14.0..sroa_idx.i.i, align 1, !alias.scope !367
  store i8 2, ptr %_54.sroa.0.sroa.16.0..sroa_idx.i.i, align 1, !alias.scope !367
  store i8 2, ptr %_54.sroa.0.sroa.18.0..sroa_idx.i.i, align 1, !alias.scope !367
  store ptr @_ZN15worduino_engine6assets6LEVELS5VALUE17h996fb4c62f7cdefaE, ptr %91, align 1, !alias.scope !367
  store i8 6, ptr %92, align 1, !alias.scope !367
  store i32 61187, ptr %93, align 1
  store i16 0, ptr %_54.sroa.6.i.i.sroa.4.0..sroa_idx, align 1
  store i8 2, ptr %_54.sroa.6.i.i.sroa.5.0..sroa_idx, align 1
  store i8 4, ptr %_54.sroa.6.i.i.sroa.6414.0..sroa_idx, align 1
  store i8 110, ptr %_54.sroa.6.i.i.sroa.7.0..sroa_idx, align 1
  store i8 53, ptr %_54.sroa.6.i.i.sroa.8.0..sroa_idx, align 1
  store i8 0, ptr %_54.sroa.6.i.i.sroa.9.0..sroa_idx, align 1
  store i8 1, ptr %_3.sroa.3.0..sroa_idx.i, align 1, !alias.scope !367
  br label %bb9

bb2.i.i:                                          ; preds = %_ZN12worduino_avr7ssd13064send17h35df484245b4434aE.exit.i
  %203 = load ptr, ptr %91, align 1, !alias.scope !367
  %204 = load i8, ptr %92, align 1, !alias.scope !367
  call addrspace(1) void @llvm.lifetime.start.p0(i64 13, ptr nonnull %player.i.i), !noalias !367
  call addrspace(1) void @llvm.memcpy.p0.p0.i16(ptr noundef nonnull align 1 dereferenceable(13) %player.i.i, ptr noundef nonnull align 1 dereferenceable(13) %93, i16 13, i1 false)
  call addrspace(1) void @llvm.lifetime.start.p0(i64 104, ptr nonnull %monsters2.i.i), !noalias !367
  call addrspace(1) void @llvm.memcpy.p0.p0.i16(ptr noundef nonnull align 1 dereferenceable(104) %monsters2.i.i, ptr noundef nonnull align 1 dereferenceable(104) %90, i16 104, i1 false)
  call addrspace(1) void @llvm.lifetime.start.p0(i64 4, ptr nonnull %buffer.i.i.i.i1), !noalias !367
  %205 = call addrspace(0) { i8, i8, ptr, ptr } asm sideeffect alignstack "\0A\09\09\09\09\09\09// load value from program memory at indirect Z into temp\0A\09\09\09\09\09\09// register $$3 and post-increment Z by one\0A\09\09\09\09\09\09lpm ${1}, Z+\0A\0A\09\09\09\09\09\09// write register $$3 to data memory at indirect X\0A\09\09\09\09\09\09// and post-increment X by one\0A\09\09\09\09\09\09st X+, ${1}\0A\0A\09\09\09\09\09\09// Decrement the loop counter in register $$0 (size_bytes).\0A\09\09\09\09\09\09// If zero has been reached the equality flag is set.\0A\09\09\09\09\09\09subi ${0}, 1\0A\0A\09\09\09\09\09\09// Check whether the end has not been reached and if so jump back.\0A\09\09\09\09\09\09// The end is reached if $$0 (size_bytes) == 0, i.e. equality flag\0A\09\09\09\09\09\09// is set.\0A\09\09\09\09\09\09// Thus if equality flag is NOT set (brNE) jump back by 4\0A\09\09\09\09\09\09// instruction, that are all instructions in this assembly.\0A\09\09\09\09\09\09// Notice: 4 instructions = 8 Byte\0A\09\09\09\09\09\09brne -8\0A\09\09\09\09\09", "=&r,=&r,=&{r31r30},=&{r27r26},0,2,3,~{sreg},~{memory}"(i8 4, ptr %203, ptr nonnull %buffer.i.i.i.i1) #12, !srcloc !4
  %self.0.i.i.i.i = load ptr, ptr %buffer.i.i.i.i1, align 1, !noalias !367
  %self.1.i.i.i.i = load ptr, ptr %94, align 1, !noalias !367
  call addrspace(1) void @llvm.lifetime.end.p0(i64 4, ptr nonnull %buffer.i.i.i.i1), !noalias !367
  call addrspace(1) void @llvm.experimental.noalias.scope.decl(metadata !375)
  call addrspace(1) void @llvm.experimental.noalias.scope.decl(metadata !378)
  %_5.i.i.i = load i16, ptr %95, align 1, !alias.scope !378, !noalias !380
  %_5.i.i.i.fr = freeze i16 %_5.i.i.i
  br label %bb5.i.i.i.i

bb5.i.i.i.i:                                      ; preds = %.noexc6, %bb2.i.i
  %score.07.i.i.i.i = phi i16 [ %_5.i.i.i.fr, %bb2.i.i ], [ %206, %.noexc6 ]
  %i.06.i.i.i.i = phi i8 [ 0, %bb2.i.i ], [ %208, %.noexc6 ]
  %206 = udiv i16 %score.07.i.i.i.i, 10
  %.neg = mul i16 %206, -10
  %d.i.i.i.i.decomposed = add i16 %.neg, %score.07.i.i.i.i
  %_12.i.i.i.i = sub i8 5, %i.06.i.i.i.i
  %_11.i.i.i.i = mul i8 %_12.i.i.i.i, 5
  %y.i.i.i.i = add i8 %_11.i.i.i.i, 31
  %207 = getelementptr inbounds [4 x i8], ptr @_ZN15worduino_engine6assets6DIGITS5VALUE17head0b016aa7766a5E, i16 %d.i.i.i.i.decomposed
; invoke worduino_engine::draw::draw_sprite
  invoke fastcc addrspace(1) void @_ZN15worduino_engine4draw11draw_sprite17hc7657142962e61a4E(ptr noalias noundef nonnull align 1 dereferenceable(1024) %engine, ptr nonnull %207, i16 4, i8 3, i8 %y.i.i.i.i, i8 noundef 0)
          to label %.noexc6 unwind label %cleanup.loopexit.split-lp.loopexit.split-lp.loopexit.split-lp.loopexit.split-lp.loopexit

.noexc6:                                          ; preds = %bb5.i.i.i.i
  %208 = add i8 %i.06.i.i.i.i, 1
  %209 = icmp eq i8 %208, 0
  %210 = icmp ugt i16 %score.07.i.i.i.i, 9
  %_4.0.i.i.i.i = select i1 %209, i1 true, i1 %210
  br i1 %_4.0.i.i.i.i, label %bb5.i.i.i.i, label %"_ZN15worduino_engine6engine15Engine$LT$P$GT$10draw_score17h492448d5796ae027E.exit.i.i.i"

"_ZN15worduino_engine6engine15Engine$LT$P$GT$10draw_score17h492448d5796ae027E.exit.i.i.i": ; preds = %.noexc6
  %portals_open.i.i = icmp ne i8 %182, 0
  call addrspace(1) void @llvm.experimental.noalias.scope.decl(metadata !381)
  call addrspace(1) void @llvm.experimental.noalias.scope.decl(metadata !384)
  %211 = load i8, ptr %player.i.i, align 1, !range !386, !alias.scope !387, !noalias !388, !noundef !368
  %trunc.i.i.i.i = trunc i8 %211 to i3
  switch i3 %trunc.i.i.i.i, label %bb4.thread.i.i.i.i [
    i3 3, label %212
    i3 -4, label %bb3.i.i.i.i
  ]

bb3.i.i.i.i:                                      ; preds = %"_ZN15worduino_engine6engine15Engine$LT$P$GT$10draw_score17h492448d5796ae027E.exit.i.i.i"
  br label %bb4.thread.i.i.i.i

212:                                              ; preds = %"_ZN15worduino_engine6engine15Engine$LT$P$GT$10draw_score17h492448d5796ae027E.exit.i.i.i"
  %remaining.i.i.i.i = load i8, ptr %96, align 1, !alias.scope !387, !noalias !388
  %phi.bo.i.i.i.i = udiv i8 %remaining.i.i.i.i, 60
  %phi.bo11.i.i.i.i = add nuw nsw i8 %phi.bo.i.i.i.i, 1
  br label %bb4.thread.i.i.i.i

bb4.thread.i.i.i.i:                               ; preds = %212, %bb3.i.i.i.i, %"_ZN15worduino_engine6engine15Engine$LT$P$GT$10draw_score17h492448d5796ae027E.exit.i.i.i"
  %_5.sroa.0.025.i.i.i.i = phi i1 [ true, %212 ], [ false, %bb3.i.i.i.i ], [ false, %"_ZN15worduino_engine6engine15Engine$LT$P$GT$10draw_score17h492448d5796ae027E.exit.i.i.i" ]
  %_5.sroa.6.024.i.i.i.i = phi i8 [ %phi.bo11.i.i.i.i, %212 ], [ 1, %bb3.i.i.i.i ], [ 1, %"_ZN15worduino_engine6engine15Engine$LT$P$GT$10draw_score17h492448d5796ae027E.exit.i.i.i" ]
  %_5.sroa.10.023.i.i.i.i = phi i1 [ false, %212 ], [ true, %bb3.i.i.i.i ], [ false, %"_ZN15worduino_engine6engine15Engine$LT$P$GT$10draw_score17h492448d5796ae027E.exit.i.i.i" ]
  %213 = phi i8 [ 1, %212 ], [ 0, %bb3.i.i.i.i ], [ 0, %"_ZN15worduino_engine6engine15Engine$LT$P$GT$10draw_score17h492448d5796ae027E.exit.i.i.i" ]
  %_1326.i.i.i.i = load i8, ptr %_1326.in.i.i.i.i, align 1, !alias.scope !387, !noalias !388
  %visible_lives.i.i.i.i = add i8 %_1326.i.i.i.i, %213
  %214 = call addrspace(1) i8 @llvm.umin.i8(i8 %visible_lives.i.i.i.i, i8 4)
  %.not.i.i.i.i = icmp eq i8 %214, 0
  br i1 %.not.i.i.i.i, label %bb12.i.i.i.i, label %bb10.lr.ph.i.i.i.i

bb10.lr.ph.i.i.i.i:                               ; preds = %bb4.thread.i.i.i.i
  %..i.i.i.i = zext i1 %_5.sroa.10.023.i.i.i.i to i8
  br label %bb10.i.i.i.i

bb12.i.i.i.i:                                     ; preds = %.noexc7, %bb4.thread.i.i.i.i
  br i1 %_5.sroa.0.025.i.i.i.i, label %bb19.preheader.i.i.i.i, label %.noexc179

bb19.preheader.i.i.i.i:                           ; preds = %bb12.i.i.i.i
  %215 = load i8, ptr %97, align 1, !alias.scope !389, !noalias !387
  %216 = or i8 %215, 64
  store i8 %216, ptr %97, align 1, !alias.scope !396, !noalias !387
  %exitcond37.not.i.i.i.i = icmp eq i8 %_5.sroa.6.024.i.i.i.i, 1
  br i1 %exitcond37.not.i.i.i.i, label %.noexc179, label %bb19.1.i.i.i.i

bb10.i.i.i.i:                                     ; preds = %.noexc7, %bb10.lr.ph.i.i.i.i
  %iter.sroa.0.033.i.i.i.i = phi i8 [ 0, %bb10.lr.ph.i.i.i.i ], [ %217, %.noexc7 ]
  %217 = add nuw nsw i8 %iter.sroa.0.033.i.i.i.i, 1
  %_30.i.i.i.i = add nuw nsw i8 %217, %..i.i.i.i
  %_29.neg.i.i.i.i = mul i8 %_30.i.i.i.i, -7
  %y.i1.i.i.i = add nsw i8 %_29.neg.i.i.i.i, 62
; invoke worduino_engine::draw::draw_sprite
  invoke fastcc addrspace(1) void @_ZN15worduino_engine4draw11draw_sprite17hc7657142962e61a4E(ptr noalias noundef nonnull align 1 dereferenceable(1024) %engine, ptr nonnull @_ZN15worduino_engine6assets11PLAYER_LIFE5VALUE17h0b99e0c8b05c741dE, i16 6, i8 122, i8 %y.i1.i.i.i, i8 noundef 0)
          to label %.noexc7 unwind label %cleanup.loopexit.split-lp.loopexit.split-lp.loopexit.split-lp.loopexit

.noexc7:                                          ; preds = %bb10.i.i.i.i
  %exitcond.not.i.i.i.i = icmp eq i8 %217, %214
  br i1 %exitcond.not.i.i.i.i, label %bb12.i.i.i.i, label %bb10.i.i.i.i

bb19.1.i.i.i.i:                                   ; preds = %bb19.preheader.i.i.i.i
  %218 = load i8, ptr %98, align 1, !alias.scope !401, !noalias !387
  %219 = or i8 %218, 64
  store i8 %219, ptr %98, align 1, !alias.scope !405, !noalias !387
  %exitcond37.1.not.i.i.i.i = icmp eq i8 %_5.sroa.6.024.i.i.i.i, 2
  br i1 %exitcond37.1.not.i.i.i.i, label %.noexc179, label %bb19.2.i.i.i.i

bb19.2.i.i.i.i:                                   ; preds = %bb19.1.i.i.i.i
  %220 = load i8, ptr %99, align 1, !alias.scope !406, !noalias !387
  %221 = or i8 %220, 64
  store i8 %221, ptr %99, align 1, !alias.scope !410, !noalias !387
  %exitcond37.2.not.i.i.i.i = icmp eq i8 %_5.sroa.6.024.i.i.i.i, 3
  br i1 %exitcond37.2.not.i.i.i.i, label %.noexc179, label %bb19.3.i.i.i.i

bb19.3.i.i.i.i:                                   ; preds = %bb19.2.i.i.i.i
  %222 = load i8, ptr %100, align 1, !alias.scope !411, !noalias !387
  %223 = or i8 %222, 64
  store i8 %223, ptr %100, align 1, !alias.scope !415, !noalias !387
  %exitcond37.3.not.i.i.i.i = icmp eq i8 %_5.sroa.6.024.i.i.i.i, 4
  br i1 %exitcond37.3.not.i.i.i.i, label %.noexc179, label %panic.i.i20.i178.invoke

.noexc179:                                        ; preds = %bb12.i.i.i.i, %bb19.preheader.i.i.i.i, %bb19.1.i.i.i.i, %bb19.2.i.i.i.i, %bb19.3.i.i.i.i
  call addrspace(1) void @llvm.experimental.noalias.scope.decl(metadata !416)
  %_7.i.i.i = load i8, ptr %88, align 1, !alias.scope !419
  call addrspace(1) void @llvm.experimental.noalias.scope.decl(metadata !420)
  call addrspace(1) void @llvm.lifetime.start.p0(i64 1, ptr nonnull %iter.sroa.5.i142)
  store i8 2, ptr %iter.sroa.5.i142, align 1, !noalias !420
  br label %bb3.us.i149

bb3.us.i149:                                      ; preds = %bb1.i.i.i.us.i165, %.noexc179
  %self.val.i.i.i.i1046.us.i145 = phi i8 [ %self.val.i.i.i.i1045.us.i155189, %bb1.i.i.i.us.i165 ], [ 56, %.noexc179 ]
  %iter.sroa.0.0.us.i146 = phi i8 [ %iter.sroa.0.12834.us.i157191, %bb1.i.i.i.us.i165 ], [ 1, %.noexc179 ]
  %trunc.not.i.us.i147 = icmp eq i8 %iter.sroa.0.0.us.i146, 0
  %_8.0.i.us.i148 = select i1 %trunc.not.i.us.i147, ptr null, ptr %iter.sroa.5.i142
  br i1 %trunc.not.i.us.i147, label %bb3.i.i.us.i153, label %bb3.i.us.i151

bb3.i.us.i151:                                    ; preds = %bb3.us.i149
  %self.val.i.i.i.i.us.i150 = load i8, ptr %_8.0.i.us.i148, align 1, !alias.scope !423, !noalias !420
  %224 = icmp ult i8 %self.val.i.i.i.i.us.i150, 8
  br i1 %224, label %bb4.us.i161, label %bb3.i.i.us.i153

bb3.i.i.us.i153:                                  ; preds = %bb3.i.us.i151, %bb3.us.i149
  %225 = icmp ult i8 %self.val.i.i.i.i1046.us.i145, 63
  br i1 %225, label %bb4.us.i161.thread, label %bb9.lr.ph.i169

bb4.us.i161.thread:                               ; preds = %bb3.i.i.us.i153
  %226 = add nuw nsw i8 %self.val.i.i.i.i1046.us.i145, 1
  br label %bb1.i.i.i.us.i165

bb4.us.i161:                                      ; preds = %bb3.i.us.i151
  %227 = add nuw i8 %self.val.i.i.i.i.us.i150, 1
  store i8 %227, ptr %_8.0.i.us.i148, align 1, !alias.scope !432, !noalias !420
  br label %bb1.i.i.i.us.i165

bb1.i.i.i.us.i165:                                ; preds = %bb4.us.i161, %bb4.us.i161.thread
  %iter.sroa.0.12834.us.i157191 = phi i8 [ 0, %bb4.us.i161.thread ], [ 1, %bb4.us.i161 ]
  %.sroa.3.0.i1335.us.i156190 = phi i8 [ %self.val.i.i.i.i1046.us.i145, %bb4.us.i161.thread ], [ %self.val.i.i.i.i.us.i150, %bb4.us.i161 ]
  %self.val.i.i.i.i1045.us.i155189 = phi i8 [ %226, %bb4.us.i161.thread ], [ %self.val.i.i.i.i1046.us.i145, %bb4.us.i161 ]
  %_4.i.i.i.us.i159192.in = lshr i8 %.sroa.3.0.i1335.us.i156190, 3
  %_4.i.i.i.us.i159192 = zext i8 %_4.i.i.i.us.i159192.in to i16
  %offset.i.us.i162 = and i8 %.sroa.3.0.i1335.us.i156190, 7
  %228 = getelementptr inbounds [8 x [128 x i8]], ptr %engine, i16 0, i16 %_4.i.i.i.us.i159192, i16 9
  %229 = load i8, ptr %228, align 1, !alias.scope !435
  %mask.i.us.i163 = shl nuw i8 1, %offset.i.us.i162
  %230 = or i8 %229, %mask.i.us.i163
  store i8 %230, ptr %228, align 1, !alias.scope !442
  br label %bb3.us.i149

bb9.lr.ph.i169:                                   ; preds = %bb3.i.i.us.i153
  call addrspace(1) void @llvm.lifetime.end.p0(i64 1, ptr nonnull %iter.sroa.5.i142)
  %231 = getelementptr inbounds [8 x [128 x i8]], ptr %engine, i16 0, i16 1, i16 9
  store i8 -1, ptr %231, align 1, !alias.scope !447
  %232 = getelementptr inbounds [8 x [128 x i8]], ptr %engine, i16 0, i16 2, i16 9
  store i8 -1, ptr %232, align 1, !alias.scope !447
  %233 = getelementptr inbounds [8 x [128 x i8]], ptr %engine, i16 0, i16 3, i16 9
  store i8 -1, ptr %233, align 1, !alias.scope !447
  %234 = getelementptr inbounds [8 x [128 x i8]], ptr %engine, i16 0, i16 4, i16 9
  store i8 -1, ptr %234, align 1, !alias.scope !447
  %235 = getelementptr inbounds [8 x [128 x i8]], ptr %engine, i16 0, i16 5, i16 9
  store i8 -1, ptr %235, align 1, !alias.scope !447
  %236 = getelementptr inbounds [8 x [128 x i8]], ptr %engine, i16 0, i16 6, i16 9
  store i8 -1, ptr %236, align 1, !alias.scope !447
; call worduino_engine::draw::draw_vertical_line
  call fastcc addrspace(1) void @_ZN15worduino_engine4draw18draw_vertical_line17h6b256f8c00e14efbE(ptr noalias noundef nonnull align 1 dereferenceable(1024) %engine, i8 119, i8 2, i8 62, i1 noundef zeroext true)
  br label %_ZN15worduino_engine11peripherals11Peripherals9set_pixel17hcbc0d339925cf990E.exit.us.i.i.i.i

panic.i.i20.i178.invoke:                          ; preds = %bb37.i.i.i, %bb47.i.i.i, %bb16.i.i.i, %bb3.i46.i.i, %bb19.3.i.i.i.i, %_ZN15worduino_engine6engine12BasicMonster4draw17h3cc0b88e15359449E.exit.i.i, %bb9.i82.i.i, %bb4.us.i143.i.i.i, %bb9.us.us.i160.i.i.i, %bb4.us.i.i.i.i, %bb9.us.us.i.i.i.i
  %237 = phi i16 [ %_6.i.i15.us.us.i.i.i.i, %bb9.us.us.i.i.i.i ], [ %_4.i.i.i.us.i.i.i.i, %bb4.us.i.i.i.i ], [ %_6.i.i15.us.us.i158.i.i.i, %bb9.us.us.i160.i.i.i ], [ %_4.i.i.i.us.i141.i.i.i, %bb4.us.i143.i.i.i ], [ %_6.i15.i.i.i, %bb9.i82.i.i ], [ %_6.i31.i.i, %_ZN15worduino_engine6engine12BasicMonster4draw17h3cc0b88e15359449E.exit.i.i ], [ %_6.i49.i.i.i, %bb37.i.i.i ], [ %_6.i39.i.i.i, %bb47.i.i.i ], [ %_6.i28.i.i.i, %bb16.i.i.i ], [ %_6.i24.i.i.i, %bb3.i46.i.i ], [ 128, %bb19.3.i.i.i.i ]
  %238 = phi i16 [ 8, %bb9.us.us.i.i.i.i ], [ 8, %bb4.us.i.i.i.i ], [ 8, %bb9.us.us.i160.i.i.i ], [ 8, %bb4.us.i143.i.i.i ], [ 3, %bb9.i82.i.i ], [ 3, %_ZN15worduino_engine6engine12BasicMonster4draw17h3cc0b88e15359449E.exit.i.i ], [ 3, %bb37.i.i.i ], [ 2, %bb47.i.i.i ], [ 3, %bb16.i.i.i ], [ 4, %bb3.i46.i.i ], [ 128, %bb19.3.i.i.i.i ]
; call core::panicking::panic_bounds_check
  call fastcc addrspace(1) void @_ZN4core9panicking18panic_bounds_check17h763c22f7e6216696E(i16 %237, i16 %238) #13
  unreachable

_ZN15worduino_engine11peripherals11Peripherals9set_pixel17hcbc0d339925cf990E.exit.us.i.i.i.i: ; preds = %bb9.lr.ph.i169, %_ZN15worduino_engine11peripherals11Peripherals9set_pixel17hcbc0d339925cf990E.exit.us.i.i.i.i
  %iter.sroa.0.05.us.i.i.i.i = phi i8 [ %239, %_ZN15worduino_engine11peripherals11Peripherals9set_pixel17hcbc0d339925cf990E.exit.us.i.i.i.i ], [ 9, %bb9.lr.ph.i169 ]
  %_8.i.i.i.us.i.i.i.i = zext i8 %iter.sroa.0.05.us.i.i.i.i to i16
  %239 = add nuw nsw i8 %iter.sroa.0.05.us.i.i.i.i, 1
  %240 = getelementptr inbounds [8 x [128 x i8]], ptr %engine, i16 0, i16 0, i16 %_8.i.i.i.us.i.i.i.i
  %241 = load i8, ptr %240, align 1, !alias.scope !452
  %242 = or i8 %241, 4
  store i8 %242, ptr %240, align 1, !alias.scope !461
  %exitcond.not.i.i17.i.i = icmp eq i8 %iter.sroa.0.05.us.i.i.i.i, 119
  br i1 %exitcond.not.i.i17.i.i, label %_ZN15worduino_engine11peripherals11Peripherals9set_pixel17hcbc0d339925cf990E.exit.us.i29.i.i.i, label %_ZN15worduino_engine11peripherals11Peripherals9set_pixel17hcbc0d339925cf990E.exit.us.i.i.i.i

_ZN15worduino_engine11peripherals11Peripherals9set_pixel17hcbc0d339925cf990E.exit.us.i29.i.i.i: ; preds = %_ZN15worduino_engine11peripherals11Peripherals9set_pixel17hcbc0d339925cf990E.exit.us.i.i.i.i, %_ZN15worduino_engine11peripherals11Peripherals9set_pixel17hcbc0d339925cf990E.exit.us.i29.i.i.i
  %iter.sroa.0.05.us.i24.i.i.i = phi i8 [ %243, %_ZN15worduino_engine11peripherals11Peripherals9set_pixel17hcbc0d339925cf990E.exit.us.i29.i.i.i ], [ 9, %_ZN15worduino_engine11peripherals11Peripherals9set_pixel17hcbc0d339925cf990E.exit.us.i.i.i.i ]
  %_8.i.i.i.us.i25.i.i.i = zext i8 %iter.sroa.0.05.us.i24.i.i.i to i16
  %243 = add nuw nsw i8 %iter.sroa.0.05.us.i24.i.i.i, 1
  %244 = getelementptr inbounds [8 x [128 x i8]], ptr %engine, i16 0, i16 7, i16 %_8.i.i.i.us.i25.i.i.i
  %245 = load i8, ptr %244, align 1, !alias.scope !466
  %246 = or i8 %245, 64
  store i8 %246, ptr %244, align 1, !alias.scope !475
  %exitcond.not.i28.i.i.i = icmp eq i8 %iter.sroa.0.05.us.i24.i.i.i, 119
  br i1 %exitcond.not.i28.i.i.i, label %"_ZN11avr_progmem7wrapper37ProgMem$LT$$u5b$T$u3b$$u20$N$u5d$$GT$7load_at17h6d61225f1a688421E.exit.i.preheader.i.i", label %_ZN15worduino_engine11peripherals11Peripherals9set_pixel17hcbc0d339925cf990E.exit.us.i29.i.i.i

"_ZN11avr_progmem7wrapper37ProgMem$LT$$u5b$T$u3b$$u20$N$u5d$$GT$7load_at17h6d61225f1a688421E.exit.i.preheader.i.i": ; preds = %_ZN15worduino_engine11peripherals11Peripherals9set_pixel17hcbc0d339925cf990E.exit.us.i29.i.i.i
  %_6.i.i.i = urem i8 %_7.i.i.i, 12
  %._5.sroa.10.0.i.i.i.i = or i1 %_5.sroa.0.025.i.i.i.i, %_5.sroa.10.023.i.i.i.i
  %door_state.i.i.i = icmp ult i8 %_6.i.i.i, 6
  br label %"_ZN11avr_progmem7wrapper37ProgMem$LT$$u5b$T$u3b$$u20$N$u5d$$GT$7load_at17h6d61225f1a688421E.exit.i.i.i"

bb6.loopexit.i.i.i:                               ; preds = %bb18.i.i.i
  %247 = icmp ult i16 %iter.sroa.0.0277.i.i.i, 5
  br i1 %247, label %"_ZN11avr_progmem7wrapper37ProgMem$LT$$u5b$T$u3b$$u20$N$u5d$$GT$7load_at17h6d61225f1a688421E.exit.i.i.i", label %"_ZN11avr_progmem7wrapper37ProgMem$LT$$u5b$T$u3b$$u20$N$u5d$$GT$7load_at17he156862a57100089E.exit.i.i.i"

"_ZN11avr_progmem7wrapper37ProgMem$LT$$u5b$T$u3b$$u20$N$u5d$$GT$7load_at17h6d61225f1a688421E.exit.i.i.i": ; preds = %bb6.loopexit.i.i.i, %"_ZN11avr_progmem7wrapper37ProgMem$LT$$u5b$T$u3b$$u20$N$u5d$$GT$7load_at17h6d61225f1a688421E.exit.i.preheader.i.i"
  %iter.sroa.0.0277.i.i.i = phi i16 [ %248, %bb6.loopexit.i.i.i ], [ 0, %"_ZN11avr_progmem7wrapper37ProgMem$LT$$u5b$T$u3b$$u20$N$u5d$$GT$7load_at17h6d61225f1a688421E.exit.i.preheader.i.i" ]
  %248 = add nuw nsw i16 %iter.sroa.0.0277.i.i.i, 1
  %249 = getelementptr inbounds i16, ptr %self.0.i.i.i.i, i16 %iter.sroa.0.0277.i.i.i
  call addrspace(1) void @llvm.lifetime.start.p0(i64 2, ptr nonnull %buffer.i.i.i.i.i.i), !noalias !419
  %250 = call addrspace(0) { i8, i8, ptr, ptr } asm sideeffect alignstack "\0A\09\09\09\09\09\09// load value from program memory at indirect Z into temp\0A\09\09\09\09\09\09// register $$3 and post-increment Z by one\0A\09\09\09\09\09\09lpm ${1}, Z+\0A\0A\09\09\09\09\09\09// write register $$3 to data memory at indirect X\0A\09\09\09\09\09\09// and post-increment X by one\0A\09\09\09\09\09\09st X+, ${1}\0A\0A\09\09\09\09\09\09// Decrement the loop counter in register $$0 (size_bytes).\0A\09\09\09\09\09\09// If zero has been reached the equality flag is set.\0A\09\09\09\09\09\09subi ${0}, 1\0A\0A\09\09\09\09\09\09// Check whether the end has not been reached and if so jump back.\0A\09\09\09\09\09\09// The end is reached if $$0 (size_bytes) == 0, i.e. equality flag\0A\09\09\09\09\09\09// is set.\0A\09\09\09\09\09\09// Thus if equality flag is NOT set (brNE) jump back by 4\0A\09\09\09\09\09\09// instruction, that are all instructions in this assembly.\0A\09\09\09\09\09\09// Notice: 4 instructions = 8 Byte\0A\09\09\09\09\09\09brne -8\0A\09\09\09\09\09", "=&r,=&r,=&{r31r30},=&{r27r26},0,2,3,~{sreg},~{memory}"(i8 2, ptr %249, ptr nonnull %buffer.i.i.i.i.i.i) #12, !srcloc !4
  %self.i.i.i.i.i.i = load i16, ptr %buffer.i.i.i.i.i.i, align 1, !noalias !419
  call addrspace(1) void @llvm.lifetime.end.p0(i64 2, ptr nonnull %buffer.i.i.i.i.i.i), !noalias !419
  %_43.i.i.i = trunc i16 %iter.sroa.0.0277.i.i.i to i8
  %_8.i.i.i.i = mul nuw nsw i8 %_43.i.i.i, 10
  %yp.i.i.i.i = add nuw nsw i8 %_8.i.i.i.i, 2
  %_15.i.i.i.i = add nuw nsw i8 %_8.i.i.i.i, 11
  %_18.i124.i.i.i = add nuw nsw i8 %_8.i.i.i.i, 12
  %251 = add i8 %_8.i.i.i.i, 9
  %252 = and i8 %251, -8
  %253 = call addrspace(1) i8 @llvm.umin.i8(i8 %_15.i.i.i.i, i8 %252)
  %254 = and i8 %_15.i.i.i.i, -8
  %255 = call addrspace(1) i8 @llvm.umax.i8(i8 %yp.i.i.i.i, i8 %254)
  %_335.i151.i.i.i = lshr i8 %253, 3
  %_356.i152.i.i.i = lshr i8 %255, 3
  %256 = icmp ult i8 %_335.i151.i.i.i, %_356.i152.i.i.i
  %umax61.i155.i.i.i = call addrspace(1) i8 @llvm.umax.i8(i8 %_335.i151.i.i.i, i8 8)
  br label %bb12.i.i.i

bb12.i.i.i:                                       ; preds = %bb18.i.i.i, %"_ZN11avr_progmem7wrapper37ProgMem$LT$$u5b$T$u3b$$u20$N$u5d$$GT$7load_at17h6d61225f1a688421E.exit.i.i.i"
  %row.0276.i.i.i = phi i16 [ %self.i.i.i.i.i.i, %"_ZN11avr_progmem7wrapper37ProgMem$LT$$u5b$T$u3b$$u20$N$u5d$$GT$7load_at17h6d61225f1a688421E.exit.i.i.i" ], [ %277, %bb18.i.i.i ]
  %iter3.sroa.0.0275.i.i.i = phi i8 [ 1, %"_ZN11avr_progmem7wrapper37ProgMem$LT$$u5b$T$u3b$$u20$N$u5d$$GT$7load_at17h6d61225f1a688421E.exit.i.i.i" ], [ %257, %bb18.i.i.i ]
  %257 = add nuw nsw i8 %iter3.sroa.0.0275.i.i.i, 1
  %_39.i.i.i = and i16 %row.0276.i.i.i, 1
  %258 = icmp eq i16 %_39.i.i.i, 0
  br i1 %258, label %bb18.i.i.i, label %.noexc11

.noexc11:                                         ; preds = %bb12.i.i.i
  %_5.i.i.i.i = mul nuw nsw i8 %iter3.sroa.0.0275.i.i.i, 10
  %xp.i.i.i.i = add nuw nsw i8 %_5.i.i.i.i, 9
  call addrspace(1) void @llvm.experimental.noalias.scope.decl(metadata !480)
  %_12.i.i18.i.i = add nuw nsw i8 %_5.i.i.i.i, 8
  call addrspace(1) void @llvm.lifetime.start.p0(i64 1, ptr nonnull %iter.sroa.5.i120.i.i.i)
  store i8 %yp.i.i.i.i, ptr %iter.sroa.5.i120.i.i.i, align 1, !noalias !483
  %_8.i.i.i.i125.i.i.i = zext i8 %_12.i.i18.i.i to i16
  br label %bb3.us.i131.i.i.i

bb3.us.i131.i.i.i:                                ; preds = %bb1.i.i.i.us.i147.i.i.i, %.noexc11
  %self.val.i.i.i.i1046.us.i127.i.i.i = phi i8 [ %self.val.i.i.i.i1045.us.i137.i.i.i, %bb1.i.i.i.us.i147.i.i.i ], [ %255, %.noexc11 ]
  %iter.sroa.0.0.us.i128.i.i.i = phi i8 [ %iter.sroa.0.12834.us.i139.i.i.i, %bb1.i.i.i.us.i147.i.i.i ], [ 1, %.noexc11 ]
  %trunc.not.i.us.i129.i.i.i = icmp eq i8 %iter.sroa.0.0.us.i128.i.i.i, 0
  %_8.0.i.us.i130.i.i.i = select i1 %trunc.not.i.us.i129.i.i.i, ptr null, ptr %iter.sroa.5.i120.i.i.i
  br i1 %trunc.not.i.us.i129.i.i.i, label %bb3.i.i.us.i135.i.i.i, label %bb3.i.us.i133.i.i.i

bb3.i.us.i133.i.i.i:                              ; preds = %bb3.us.i131.i.i.i
  %self.val.i.i.i.i.us.i132.i.i.i = load i8, ptr %_8.0.i.us.i130.i.i.i, align 1, !alias.scope !484, !noalias !483
  %259 = icmp ult i8 %self.val.i.i.i.i.us.i132.i.i.i, %253
  br i1 %259, label %"_ZN4core6option15Option$LT$T$GT$7or_else17h27f17428c2c797feE.exit.thread.us.i134.i.i.i", label %bb3.i.i.us.i135.i.i.i

"_ZN4core6option15Option$LT$T$GT$7or_else17h27f17428c2c797feE.exit.thread.us.i134.i.i.i": ; preds = %bb3.i.us.i133.i.i.i
  %260 = add nuw i8 %self.val.i.i.i.i.us.i132.i.i.i, 1
  store i8 %260, ptr %_8.0.i.us.i130.i.i.i, align 1, !alias.scope !493, !noalias !483
  br label %bb4.us.i143.i.i.i

bb3.i.i.us.i135.i.i.i:                            ; preds = %bb3.i.us.i133.i.i.i, %bb3.us.i131.i.i.i
  %261 = icmp ult i8 %self.val.i.i.i.i1046.us.i127.i.i.i, %_18.i124.i.i.i
  br i1 %261, label %"_ZN4core6option15Option$LT$T$GT$7or_else17h27f17428c2c797feE.exit.us.i136.i.i.i", label %bb6.i153.i.i.i

"_ZN4core6option15Option$LT$T$GT$7or_else17h27f17428c2c797feE.exit.us.i136.i.i.i": ; preds = %bb3.i.i.us.i135.i.i.i
  %262 = add nuw i8 %self.val.i.i.i.i1046.us.i127.i.i.i, 1
  br label %bb4.us.i143.i.i.i

bb4.us.i143.i.i.i:                                ; preds = %"_ZN4core6option15Option$LT$T$GT$7or_else17h27f17428c2c797feE.exit.us.i136.i.i.i", %"_ZN4core6option15Option$LT$T$GT$7or_else17h27f17428c2c797feE.exit.thread.us.i134.i.i.i"
  %self.val.i.i.i.i1045.us.i137.i.i.i = phi i8 [ %self.val.i.i.i.i1046.us.i127.i.i.i, %"_ZN4core6option15Option$LT$T$GT$7or_else17h27f17428c2c797feE.exit.thread.us.i134.i.i.i" ], [ %262, %"_ZN4core6option15Option$LT$T$GT$7or_else17h27f17428c2c797feE.exit.us.i136.i.i.i" ]
  %.sroa.3.0.i1335.us.i138.i.i.i = phi i8 [ %self.val.i.i.i.i.us.i132.i.i.i, %"_ZN4core6option15Option$LT$T$GT$7or_else17h27f17428c2c797feE.exit.thread.us.i134.i.i.i" ], [ %self.val.i.i.i.i1046.us.i127.i.i.i, %"_ZN4core6option15Option$LT$T$GT$7or_else17h27f17428c2c797feE.exit.us.i136.i.i.i" ]
  %iter.sroa.0.12834.us.i139.i.i.i = phi i8 [ 1, %"_ZN4core6option15Option$LT$T$GT$7or_else17h27f17428c2c797feE.exit.thread.us.i134.i.i.i" ], [ 0, %"_ZN4core6option15Option$LT$T$GT$7or_else17h27f17428c2c797feE.exit.us.i136.i.i.i" ]
  %stripe1.i.us.i140.i.i.i = lshr i8 %.sroa.3.0.i1335.us.i138.i.i.i, 3
  %_4.i.i.i.us.i141.i.i.i = zext i8 %stripe1.i.us.i140.i.i.i to i16
  %_7.i.i.i.us.i142.i.i.i = icmp ult i8 %.sroa.3.0.i1335.us.i138.i.i.i, 64
  br i1 %_7.i.i.i.us.i142.i.i.i, label %bb1.i.i.i.us.i147.i.i.i, label %panic.i.i20.i178.invoke, !prof !3

bb1.i.i.i.us.i147.i.i.i:                          ; preds = %bb4.us.i143.i.i.i
  %offset.i.us.i144.i.i.i = and i8 %.sroa.3.0.i1335.us.i138.i.i.i, 7
  %263 = getelementptr inbounds [8 x [128 x i8]], ptr %engine, i16 0, i16 %_4.i.i.i.us.i141.i.i.i, i16 %_8.i.i.i.i125.i.i.i
  %264 = load i8, ptr %263, align 1, !alias.scope !496
  %mask.i.us.i145.i.i.i = shl nuw i8 1, %offset.i.us.i144.i.i.i
  %265 = or i8 %264, %mask.i.us.i145.i.i.i
  store i8 %265, ptr %263, align 1, !alias.scope !503
  br label %bb3.us.i131.i.i.i

bb6.i153.i.i.i:                                   ; preds = %bb3.i.i.us.i135.i.i.i
  call addrspace(1) void @llvm.lifetime.end.p0(i64 1, ptr nonnull %iter.sroa.5.i120.i.i.i)
  br i1 %256, label %bb9.us.us.i160.i.i.i, label %.noexc14

bb9.us.us.i160.i.i.i:                             ; preds = %bb6.i153.i.i.i, %bb1.i.i19.us.us.i162.i.i.i
  %iter2.sroa.0.050.us.us.i157.i.i.i = phi i8 [ %266, %bb1.i.i19.us.us.i162.i.i.i ], [ %_335.i151.i.i.i, %bb6.i153.i.i.i ]
  %_6.i.i15.us.us.i158.i.i.i = zext i8 %iter2.sroa.0.050.us.us.i157.i.i.i to i16
  %exitcond62.not.i159.i.i.i = icmp eq i8 %iter2.sroa.0.050.us.us.i157.i.i.i, %umax61.i155.i.i.i
  br i1 %exitcond62.not.i159.i.i.i, label %panic.i.i20.i178.invoke, label %bb1.i.i19.us.us.i162.i.i.i, !prof !289

bb1.i.i19.us.us.i162.i.i.i:                       ; preds = %bb9.us.us.i160.i.i.i
  %266 = add nuw nsw i8 %iter2.sroa.0.050.us.us.i157.i.i.i, 1
  %267 = getelementptr inbounds [8 x [128 x i8]], ptr %engine, i16 0, i16 %_6.i.i15.us.us.i158.i.i.i, i16 %_8.i.i.i.i125.i.i.i
  store i8 -1, ptr %267, align 1, !alias.scope !508
  %exitcond63.not.i161.i.i.i = icmp eq i8 %266, %_356.i152.i.i.i
  br i1 %exitcond63.not.i161.i.i.i, label %.noexc14, label %bb9.us.us.i160.i.i.i

.noexc14:                                         ; preds = %bb1.i.i19.us.us.i162.i.i.i, %bb6.i153.i.i.i
  call addrspace(1) void @llvm.experimental.noalias.scope.decl(metadata !513)
  call addrspace(1) void @llvm.lifetime.start.p0(i64 1, ptr nonnull %iter.sroa.5.i.i.i.i)
  store i8 %yp.i.i.i.i, ptr %iter.sroa.5.i.i.i.i, align 1, !noalias !516
  %_8.i.i.i.i.i.i.i = zext i8 %xp.i.i.i.i to i16
  br label %bb3.us.i.i.i.i

bb3.us.i.i.i.i:                                   ; preds = %bb1.i.i.i.us.i.i.i.i, %.noexc14
  %self.val.i.i.i.i1046.us.i.i.i.i = phi i8 [ %self.val.i.i.i.i1045.us.i.i.i.i, %bb1.i.i.i.us.i.i.i.i ], [ %255, %.noexc14 ]
  %iter.sroa.0.0.us.i.i.i.i = phi i8 [ %iter.sroa.0.12834.us.i.i.i.i, %bb1.i.i.i.us.i.i.i.i ], [ 1, %.noexc14 ]
  %trunc.not.i.us.i.i.i.i = icmp eq i8 %iter.sroa.0.0.us.i.i.i.i, 0
  %_8.0.i.us.i.i.i.i = select i1 %trunc.not.i.us.i.i.i.i, ptr null, ptr %iter.sroa.5.i.i.i.i
  br i1 %trunc.not.i.us.i.i.i.i, label %bb3.i.i.us.i.i.i.i, label %bb3.i.us.i.i.i.i

bb3.i.us.i.i.i.i:                                 ; preds = %bb3.us.i.i.i.i
  %self.val.i.i.i.i.us.i.i.i.i = load i8, ptr %_8.0.i.us.i.i.i.i, align 1, !alias.scope !517, !noalias !516
  %268 = icmp ult i8 %self.val.i.i.i.i.us.i.i.i.i, %253
  br i1 %268, label %"_ZN4core6option15Option$LT$T$GT$7or_else17h27f17428c2c797feE.exit.thread.us.i.i.i.i", label %bb3.i.i.us.i.i.i.i

"_ZN4core6option15Option$LT$T$GT$7or_else17h27f17428c2c797feE.exit.thread.us.i.i.i.i": ; preds = %bb3.i.us.i.i.i.i
  %269 = add nuw i8 %self.val.i.i.i.i.us.i.i.i.i, 1
  store i8 %269, ptr %_8.0.i.us.i.i.i.i, align 1, !alias.scope !526, !noalias !516
  br label %bb4.us.i.i.i.i

bb3.i.i.us.i.i.i.i:                               ; preds = %bb3.i.us.i.i.i.i, %bb3.us.i.i.i.i
  %270 = icmp ult i8 %self.val.i.i.i.i1046.us.i.i.i.i, %_18.i124.i.i.i
  br i1 %270, label %"_ZN4core6option15Option$LT$T$GT$7or_else17h27f17428c2c797feE.exit.us.i.i.i.i", label %bb6.i.i.i.i

"_ZN4core6option15Option$LT$T$GT$7or_else17h27f17428c2c797feE.exit.us.i.i.i.i": ; preds = %bb3.i.i.us.i.i.i.i
  %271 = add nuw i8 %self.val.i.i.i.i1046.us.i.i.i.i, 1
  br label %bb4.us.i.i.i.i

bb4.us.i.i.i.i:                                   ; preds = %"_ZN4core6option15Option$LT$T$GT$7or_else17h27f17428c2c797feE.exit.us.i.i.i.i", %"_ZN4core6option15Option$LT$T$GT$7or_else17h27f17428c2c797feE.exit.thread.us.i.i.i.i"
  %self.val.i.i.i.i1045.us.i.i.i.i = phi i8 [ %self.val.i.i.i.i1046.us.i.i.i.i, %"_ZN4core6option15Option$LT$T$GT$7or_else17h27f17428c2c797feE.exit.thread.us.i.i.i.i" ], [ %271, %"_ZN4core6option15Option$LT$T$GT$7or_else17h27f17428c2c797feE.exit.us.i.i.i.i" ]
  %.sroa.3.0.i1335.us.i.i.i.i = phi i8 [ %self.val.i.i.i.i.us.i.i.i.i, %"_ZN4core6option15Option$LT$T$GT$7or_else17h27f17428c2c797feE.exit.thread.us.i.i.i.i" ], [ %self.val.i.i.i.i1046.us.i.i.i.i, %"_ZN4core6option15Option$LT$T$GT$7or_else17h27f17428c2c797feE.exit.us.i.i.i.i" ]
  %iter.sroa.0.12834.us.i.i.i.i = phi i8 [ 1, %"_ZN4core6option15Option$LT$T$GT$7or_else17h27f17428c2c797feE.exit.thread.us.i.i.i.i" ], [ 0, %"_ZN4core6option15Option$LT$T$GT$7or_else17h27f17428c2c797feE.exit.us.i.i.i.i" ]
  %stripe1.i.us.i.i.i.i = lshr i8 %.sroa.3.0.i1335.us.i.i.i.i, 3
  %_4.i.i.i.us.i.i.i.i = zext i8 %stripe1.i.us.i.i.i.i to i16
  %_7.i.i.i.us.i.i.i.i = icmp ult i8 %.sroa.3.0.i1335.us.i.i.i.i, 64
  br i1 %_7.i.i.i.us.i.i.i.i, label %bb1.i.i.i.us.i.i.i.i, label %panic.i.i20.i178.invoke, !prof !3

bb1.i.i.i.us.i.i.i.i:                             ; preds = %bb4.us.i.i.i.i
  %offset.i.us.i.i.i.i = and i8 %.sroa.3.0.i1335.us.i.i.i.i, 7
  %272 = getelementptr inbounds [8 x [128 x i8]], ptr %engine, i16 0, i16 %_4.i.i.i.us.i.i.i.i, i16 %_8.i.i.i.i.i.i.i
  %273 = load i8, ptr %272, align 1, !alias.scope !529
  %mask.i.us.i.i.i.i = shl nuw i8 1, %offset.i.us.i.i.i.i
  %274 = or i8 %273, %mask.i.us.i.i.i.i
  store i8 %274, ptr %272, align 1, !alias.scope !536
  br label %bb3.us.i.i.i.i

bb6.i.i.i.i:                                      ; preds = %bb3.i.i.us.i.i.i.i
  call addrspace(1) void @llvm.lifetime.end.p0(i64 1, ptr nonnull %iter.sroa.5.i.i.i.i)
  br i1 %256, label %bb9.us.us.i.i.i.i, label %bb18.i.i.i

bb9.us.us.i.i.i.i:                                ; preds = %bb6.i.i.i.i, %bb1.i.i19.us.us.i.i.i.i
  %iter2.sroa.0.050.us.us.i.i.i.i = phi i8 [ %275, %bb1.i.i19.us.us.i.i.i.i ], [ %_335.i151.i.i.i, %bb6.i.i.i.i ]
  %_6.i.i15.us.us.i.i.i.i = zext i8 %iter2.sroa.0.050.us.us.i.i.i.i to i16
  %exitcond62.not.i.i.i.i = icmp eq i8 %iter2.sroa.0.050.us.us.i.i.i.i, %umax61.i155.i.i.i
  br i1 %exitcond62.not.i.i.i.i, label %panic.i.i20.i178.invoke, label %bb1.i.i19.us.us.i.i.i.i, !prof !289

bb1.i.i19.us.us.i.i.i.i:                          ; preds = %bb9.us.us.i.i.i.i
  %275 = add nuw nsw i8 %iter2.sroa.0.050.us.us.i.i.i.i, 1
  %276 = getelementptr inbounds [8 x [128 x i8]], ptr %engine, i16 0, i16 %_6.i.i15.us.us.i.i.i.i, i16 %_8.i.i.i.i.i.i.i
  store i8 -1, ptr %276, align 1, !alias.scope !541
  %exitcond63.not.i.i.i.i = icmp eq i8 %275, %_356.i152.i.i.i
  br i1 %exitcond63.not.i.i.i.i, label %bb18.i.i.i, label %bb9.us.us.i.i.i.i

bb18.i.i.i:                                       ; preds = %bb1.i.i19.us.us.i.i.i.i, %bb6.i.i.i.i, %bb12.i.i.i
  %277 = lshr i16 %row.0276.i.i.i, 1
  %exitcond.not.i.i.i = icmp eq i8 %257, 11
  br i1 %exitcond.not.i.i.i, label %bb6.loopexit.i.i.i, label %bb12.i.i.i

bb20.loopexit.i.i.i:                              ; preds = %bb32.i.i.i
  %278 = add nuw nsw i16 %iter5.sroa.0.0280.i.i.i, 1
  %279 = icmp ult i16 %iter5.sroa.0.0280.i.i.i, 10
  br i1 %279, label %"_ZN11avr_progmem7wrapper37ProgMem$LT$$u5b$T$u3b$$u20$N$u5d$$GT$7load_at17he156862a57100089E.exit.i.i.i", label %bb23.i.i.i

bb23.i.i.i:                                       ; preds = %bb20.loopexit.i.i.i
  br i1 %._5.sroa.10.0.i.i.i.i, label %.noexc138, label %bb34.i.i.i

"_ZN11avr_progmem7wrapper37ProgMem$LT$$u5b$T$u3b$$u20$N$u5d$$GT$7load_at17he156862a57100089E.exit.i.i.i": ; preds = %bb6.loopexit.i.i.i, %bb20.loopexit.i.i.i
  %iter5.sroa.0.0280.i.i.i = phi i16 [ %278, %bb20.loopexit.i.i.i ], [ 0, %bb6.loopexit.i.i.i ]
  %280 = getelementptr inbounds i8, ptr %self.1.i.i.i.i, i16 %iter5.sroa.0.0280.i.i.i
  call addrspace(1) void @llvm.lifetime.start.p0(i64 1, ptr nonnull %buffer.i.i.i41.i.i.i), !noalias !419
  %281 = call addrspace(0) { i8, i8, ptr, ptr } asm sideeffect alignstack "\0A\09\09\09\09\09\09// load value from program memory at indirect Z into temp\0A\09\09\09\09\09\09// register $$3 and post-increment Z by one\0A\09\09\09\09\09\09lpm ${1}, Z+\0A\0A\09\09\09\09\09\09// write register $$3 to data memory at indirect X\0A\09\09\09\09\09\09// and post-increment X by one\0A\09\09\09\09\09\09st X+, ${1}\0A\0A\09\09\09\09\09\09// Decrement the loop counter in register $$0 (size_bytes).\0A\09\09\09\09\09\09// If zero has been reached the equality flag is set.\0A\09\09\09\09\09\09subi ${0}, 1\0A\0A\09\09\09\09\09\09// Check whether the end has not been reached and if so jump back.\0A\09\09\09\09\09\09// The end is reached if $$0 (size_bytes) == 0, i.e. equality flag\0A\09\09\09\09\09\09// is set.\0A\09\09\09\09\09\09// Thus if equality flag is NOT set (brNE) jump back by 4\0A\09\09\09\09\09\09// instruction, that are all instructions in this assembly.\0A\09\09\09\09\09\09// Notice: 4 instructions = 8 Byte\0A\09\09\09\09\09\09brne -8\0A\09\09\09\09\09", "=&r,=&r,=&{r31r30},=&{r27r26},0,2,3,~{sreg},~{memory}"(i8 1, ptr %280, ptr nonnull %buffer.i.i.i41.i.i.i) #12, !srcloc !4
  %self.i.i.i44.i.i.i = load i8, ptr %buffer.i.i.i41.i.i.i, align 1, !noalias !419
  call addrspace(1) void @llvm.lifetime.end.p0(i64 1, ptr nonnull %buffer.i.i.i41.i.i.i), !noalias !419
  %_70.i.i.i = trunc i16 %iter5.sroa.0.0280.i.i.i to i8
  %_5.i50.i.i.i = mul nuw nsw i8 %_70.i.i.i, 10
  %xp.i51.i.i.i = add nuw nsw i8 %_5.i50.i.i.i, 9
  %_8.i.i.i.us.i.i.i.i.i = zext i8 %xp.i51.i.i.i to i16
  %282 = add nuw nsw i8 %_5.i50.i.i.i, 10
  %_8.i.i.i.us.i.1.i.i.i.i = zext i8 %282 to i16
  %283 = add nuw nsw i8 %_5.i50.i.i.i, 11
  %_8.i.i.i.us.i.2.i.i.i.i = zext i8 %283 to i16
  %284 = add nuw nsw i8 %_5.i50.i.i.i, 12
  %_8.i.i.i.us.i.3.i.i.i.i = zext i8 %284 to i16
  %285 = add nuw nsw i8 %_5.i50.i.i.i, 13
  %_8.i.i.i.us.i.4.i.i.i.i = zext i8 %285 to i16
  %286 = add nuw nsw i8 %_5.i50.i.i.i, 14
  %_8.i.i.i.us.i.5.i.i.i.i = zext i8 %286 to i16
  %287 = add nuw nsw i8 %_5.i50.i.i.i, 15
  %_8.i.i.i.us.i.6.i.i.i.i = zext i8 %287 to i16
  %288 = add nuw nsw i8 %_5.i50.i.i.i, 16
  %_8.i.i.i.us.i.7.i.i.i.i = zext i8 %288 to i16
  %289 = add nuw nsw i8 %_5.i50.i.i.i, 17
  %_8.i.i.i.us.i.8.i.i.i.i = zext i8 %289 to i16
  %290 = add nuw nsw i8 %_5.i50.i.i.i, 18
  %_8.i.i.i.us.i.9.i.i.i.i = zext i8 %290 to i16
  br label %bb26.i.i.i

bb26.i.i.i:                                       ; preds = %bb32.i.i.i, %"_ZN11avr_progmem7wrapper37ProgMem$LT$$u5b$T$u3b$$u20$N$u5d$$GT$7load_at17he156862a57100089E.exit.i.i.i"
  %col.0279.i.i.i = phi i8 [ %self.i.i.i44.i.i.i, %"_ZN11avr_progmem7wrapper37ProgMem$LT$$u5b$T$u3b$$u20$N$u5d$$GT$7load_at17he156862a57100089E.exit.i.i.i" ], [ %353, %bb32.i.i.i ]
  %iter7.sroa.0.0278.i.i.i = phi i8 [ 1, %"_ZN11avr_progmem7wrapper37ProgMem$LT$$u5b$T$u3b$$u20$N$u5d$$GT$7load_at17he156862a57100089E.exit.i.i.i" ], [ %291, %bb32.i.i.i ]
  %291 = add nuw nsw i8 %iter7.sroa.0.0278.i.i.i, 1
  %_67.i.i.i = and i8 %col.0279.i.i.i, 1
  %292 = icmp eq i8 %_67.i.i.i, 0
  br i1 %292, label %bb32.i.i.i, label %bb29.i.i.i

bb29.i.i.i:                                       ; preds = %bb26.i.i.i
  %_8.i52.i.i.i = mul nuw nsw i8 %iter7.sroa.0.0278.i.i.i, 10
  %yp.i53.i.i.i = add nuw nsw i8 %_8.i52.i.i.i, 2
  %stripe1.i.i.i.i.i.i = lshr i8 %_8.i52.i.i.i, 3
  %_4.i.i.i.i.i.i.i.i = zext i8 %stripe1.i.i.i.i.i.i to i16
  %_12.i54.i.i.i = and i8 %_8.i52.i.i.i, 6
  %offset.i.i.i.i.i.i = or i8 %_12.i54.i.i.i, 1
  %mask.i.i.i.i.i.i = shl nuw i8 1, %offset.i.i.i.i.i.i
  %293 = getelementptr inbounds [8 x [128 x i8]], ptr %engine, i16 0, i16 %_4.i.i.i.i.i.i.i.i, i16 %_8.i.i.i.us.i.i.i.i.i
  %294 = load i8, ptr %293, align 1, !alias.scope !546
  %295 = or i8 %294, %mask.i.i.i.i.i.i
  store i8 %295, ptr %293, align 1, !alias.scope !557
  %296 = getelementptr inbounds [8 x [128 x i8]], ptr %engine, i16 0, i16 %_4.i.i.i.i.i.i.i.i, i16 %_8.i.i.i.us.i.1.i.i.i.i
  %297 = load i8, ptr %296, align 1, !alias.scope !562
  %298 = or i8 %297, %mask.i.i.i.i.i.i
  store i8 %298, ptr %296, align 1, !alias.scope !566
  %299 = getelementptr inbounds [8 x [128 x i8]], ptr %engine, i16 0, i16 %_4.i.i.i.i.i.i.i.i, i16 %_8.i.i.i.us.i.2.i.i.i.i
  %300 = load i8, ptr %299, align 1, !alias.scope !567
  %301 = or i8 %300, %mask.i.i.i.i.i.i
  store i8 %301, ptr %299, align 1, !alias.scope !571
  %302 = getelementptr inbounds [8 x [128 x i8]], ptr %engine, i16 0, i16 %_4.i.i.i.i.i.i.i.i, i16 %_8.i.i.i.us.i.3.i.i.i.i
  %303 = load i8, ptr %302, align 1, !alias.scope !572
  %304 = or i8 %303, %mask.i.i.i.i.i.i
  store i8 %304, ptr %302, align 1, !alias.scope !576
  %305 = getelementptr inbounds [8 x [128 x i8]], ptr %engine, i16 0, i16 %_4.i.i.i.i.i.i.i.i, i16 %_8.i.i.i.us.i.4.i.i.i.i
  %306 = load i8, ptr %305, align 1, !alias.scope !577
  %307 = or i8 %306, %mask.i.i.i.i.i.i
  store i8 %307, ptr %305, align 1, !alias.scope !581
  %308 = getelementptr inbounds [8 x [128 x i8]], ptr %engine, i16 0, i16 %_4.i.i.i.i.i.i.i.i, i16 %_8.i.i.i.us.i.5.i.i.i.i
  %309 = load i8, ptr %308, align 1, !alias.scope !582
  %310 = or i8 %309, %mask.i.i.i.i.i.i
  store i8 %310, ptr %308, align 1, !alias.scope !586
  %311 = getelementptr inbounds [8 x [128 x i8]], ptr %engine, i16 0, i16 %_4.i.i.i.i.i.i.i.i, i16 %_8.i.i.i.us.i.6.i.i.i.i
  %312 = load i8, ptr %311, align 1, !alias.scope !587
  %313 = or i8 %312, %mask.i.i.i.i.i.i
  store i8 %313, ptr %311, align 1, !alias.scope !591
  %314 = getelementptr inbounds [8 x [128 x i8]], ptr %engine, i16 0, i16 %_4.i.i.i.i.i.i.i.i, i16 %_8.i.i.i.us.i.7.i.i.i.i
  %315 = load i8, ptr %314, align 1, !alias.scope !592
  %316 = or i8 %315, %mask.i.i.i.i.i.i
  store i8 %316, ptr %314, align 1, !alias.scope !596
  %317 = getelementptr inbounds [8 x [128 x i8]], ptr %engine, i16 0, i16 %_4.i.i.i.i.i.i.i.i, i16 %_8.i.i.i.us.i.8.i.i.i.i
  %318 = load i8, ptr %317, align 1, !alias.scope !597
  %319 = or i8 %318, %mask.i.i.i.i.i.i
  store i8 %319, ptr %317, align 1, !alias.scope !601
  %320 = getelementptr inbounds [8 x [128 x i8]], ptr %engine, i16 0, i16 %_4.i.i.i.i.i.i.i.i, i16 %_8.i.i.i.us.i.9.i.i.i.i
  %321 = load i8, ptr %320, align 1, !alias.scope !602
  %322 = or i8 %321, %mask.i.i.i.i.i.i
  store i8 %322, ptr %320, align 1, !alias.scope !606
  %stripe1.i.i2.i.i.i.i = lshr i8 %yp.i53.i.i.i, 3
  %_4.i.i.i.i3.i.i.i.i = zext i8 %stripe1.i.i2.i.i.i.i to i16
  %offset.i.i5.i.i.i.i = and i8 %yp.i53.i.i.i, 6
  %mask.i.i6.i.i.i.i = shl nuw nsw i8 1, %offset.i.i5.i.i.i.i
  %323 = getelementptr inbounds [8 x [128 x i8]], ptr %engine, i16 0, i16 %_4.i.i.i.i3.i.i.i.i, i16 %_8.i.i.i.us.i.i.i.i.i
  %324 = load i8, ptr %323, align 1, !alias.scope !607
  %325 = or i8 %324, %mask.i.i6.i.i.i.i
  store i8 %325, ptr %323, align 1, !alias.scope !616
  %326 = getelementptr inbounds [8 x [128 x i8]], ptr %engine, i16 0, i16 %_4.i.i.i.i3.i.i.i.i, i16 %_8.i.i.i.us.i.1.i.i.i.i
  %327 = load i8, ptr %326, align 1, !alias.scope !621
  %328 = or i8 %327, %mask.i.i6.i.i.i.i
  store i8 %328, ptr %326, align 1, !alias.scope !625
  %329 = getelementptr inbounds [8 x [128 x i8]], ptr %engine, i16 0, i16 %_4.i.i.i.i3.i.i.i.i, i16 %_8.i.i.i.us.i.2.i.i.i.i
  %330 = load i8, ptr %329, align 1, !alias.scope !626
  %331 = or i8 %330, %mask.i.i6.i.i.i.i
  store i8 %331, ptr %329, align 1, !alias.scope !630
  %332 = getelementptr inbounds [8 x [128 x i8]], ptr %engine, i16 0, i16 %_4.i.i.i.i3.i.i.i.i, i16 %_8.i.i.i.us.i.3.i.i.i.i
  %333 = load i8, ptr %332, align 1, !alias.scope !631
  %334 = or i8 %333, %mask.i.i6.i.i.i.i
  store i8 %334, ptr %332, align 1, !alias.scope !635
  %335 = getelementptr inbounds [8 x [128 x i8]], ptr %engine, i16 0, i16 %_4.i.i.i.i3.i.i.i.i, i16 %_8.i.i.i.us.i.4.i.i.i.i
  %336 = load i8, ptr %335, align 1, !alias.scope !636
  %337 = or i8 %336, %mask.i.i6.i.i.i.i
  store i8 %337, ptr %335, align 1, !alias.scope !640
  %338 = getelementptr inbounds [8 x [128 x i8]], ptr %engine, i16 0, i16 %_4.i.i.i.i3.i.i.i.i, i16 %_8.i.i.i.us.i.5.i.i.i.i
  %339 = load i8, ptr %338, align 1, !alias.scope !641
  %340 = or i8 %339, %mask.i.i6.i.i.i.i
  store i8 %340, ptr %338, align 1, !alias.scope !645
  %341 = getelementptr inbounds [8 x [128 x i8]], ptr %engine, i16 0, i16 %_4.i.i.i.i3.i.i.i.i, i16 %_8.i.i.i.us.i.6.i.i.i.i
  %342 = load i8, ptr %341, align 1, !alias.scope !646
  %343 = or i8 %342, %mask.i.i6.i.i.i.i
  store i8 %343, ptr %341, align 1, !alias.scope !650
  %344 = getelementptr inbounds [8 x [128 x i8]], ptr %engine, i16 0, i16 %_4.i.i.i.i3.i.i.i.i, i16 %_8.i.i.i.us.i.7.i.i.i.i
  %345 = load i8, ptr %344, align 1, !alias.scope !651
  %346 = or i8 %345, %mask.i.i6.i.i.i.i
  store i8 %346, ptr %344, align 1, !alias.scope !655
  %347 = getelementptr inbounds [8 x [128 x i8]], ptr %engine, i16 0, i16 %_4.i.i.i.i3.i.i.i.i, i16 %_8.i.i.i.us.i.8.i.i.i.i
  %348 = load i8, ptr %347, align 1, !alias.scope !656
  %349 = or i8 %348, %mask.i.i6.i.i.i.i
  store i8 %349, ptr %347, align 1, !alias.scope !660
  %350 = getelementptr inbounds [8 x [128 x i8]], ptr %engine, i16 0, i16 %_4.i.i.i.i3.i.i.i.i, i16 %_8.i.i.i.us.i.9.i.i.i.i
  %351 = load i8, ptr %350, align 1, !alias.scope !661
  %352 = or i8 %351, %mask.i.i6.i.i.i.i
  store i8 %352, ptr %350, align 1, !alias.scope !665
  br label %bb32.i.i.i

bb32.i.i.i:                                       ; preds = %bb29.i.i.i, %bb26.i.i.i
  %353 = lshr i8 %col.0279.i.i.i, 1
  %exitcond339.not.i.i.i = icmp eq i8 %291, 6
  br i1 %exitcond339.not.i.i.i, label %bb20.loopexit.i.i.i, label %bb26.i.i.i

bb34.i.i.i:                                       ; preds = %bb23.i.i.i
; call worduino_engine::draw::draw_vertical_door
  call fastcc addrspace(1) void @_ZN15worduino_engine4draw18draw_vertical_door17h21ffec8321d4a0feE(ptr noalias noundef nonnull align 1 dereferenceable(1024) %engine, i8 119, i8 52, i8 62, i1 noundef zeroext %door_state.i.i.i)
  br label %.noexc97

.noexc138:                                        ; preds = %bb23.i.i.i
  call addrspace(1) void @llvm.experimental.noalias.scope.decl(metadata !666)
  call addrspace(1) void @llvm.lifetime.start.p0(i64 1, ptr nonnull %iter.sroa.5.i101)
  store i8 52, ptr %iter.sroa.5.i101, align 1, !noalias !666
  br label %bb3.us.i108

bb3.us.i108:                                      ; preds = %bb1.i.i.i.us.i124, %.noexc138
  %self.val.i.i.i.i1046.us.i104 = phi i8 [ %self.val.i.i.i.i1045.us.i114199, %bb1.i.i.i.us.i124 ], [ 56, %.noexc138 ]
  %iter.sroa.0.0.us.i105 = phi i8 [ %iter.sroa.0.12834.us.i116201, %bb1.i.i.i.us.i124 ], [ 1, %.noexc138 ]
  %trunc.not.i.us.i106 = icmp eq i8 %iter.sroa.0.0.us.i105, 0
  %_8.0.i.us.i107 = select i1 %trunc.not.i.us.i106, ptr null, ptr %iter.sroa.5.i101
  br i1 %trunc.not.i.us.i106, label %bb3.i.i.us.i112, label %bb3.i.us.i110

bb3.i.us.i110:                                    ; preds = %bb3.us.i108
  %self.val.i.i.i.i.us.i109 = load i8, ptr %_8.0.i.us.i107, align 1, !alias.scope !669, !noalias !666
  %354 = icmp ult i8 %self.val.i.i.i.i.us.i109, 56
  br i1 %354, label %bb4.us.i120, label %bb3.i.i.us.i112

bb3.i.i.us.i112:                                  ; preds = %bb3.i.us.i110, %bb3.us.i108
  %355 = icmp ult i8 %self.val.i.i.i.i1046.us.i104, 63
  br i1 %355, label %bb4.us.i120.thread, label %bb6.i127

bb4.us.i120.thread:                               ; preds = %bb3.i.i.us.i112
  %356 = add nuw nsw i8 %self.val.i.i.i.i1046.us.i104, 1
  br label %bb1.i.i.i.us.i124

bb4.us.i120:                                      ; preds = %bb3.i.us.i110
  %357 = add nuw i8 %self.val.i.i.i.i.us.i109, 1
  store i8 %357, ptr %_8.0.i.us.i107, align 1, !alias.scope !678, !noalias !666
  br label %bb1.i.i.i.us.i124

bb1.i.i.i.us.i124:                                ; preds = %bb4.us.i120, %bb4.us.i120.thread
  %iter.sroa.0.12834.us.i116201 = phi i8 [ 0, %bb4.us.i120.thread ], [ 1, %bb4.us.i120 ]
  %.sroa.3.0.i1335.us.i115200 = phi i8 [ %self.val.i.i.i.i1046.us.i104, %bb4.us.i120.thread ], [ %self.val.i.i.i.i.us.i109, %bb4.us.i120 ]
  %self.val.i.i.i.i1045.us.i114199 = phi i8 [ %356, %bb4.us.i120.thread ], [ %self.val.i.i.i.i1046.us.i104, %bb4.us.i120 ]
  %_4.i.i.i.us.i118202.in = lshr i8 %.sroa.3.0.i1335.us.i115200, 3
  %_4.i.i.i.us.i118202 = zext i8 %_4.i.i.i.us.i118202.in to i16
  %offset.i.us.i121 = and i8 %.sroa.3.0.i1335.us.i115200, 7
  %358 = getelementptr inbounds [8 x [128 x i8]], ptr %engine, i16 0, i16 %_4.i.i.i.us.i118202, i16 119
  %359 = load i8, ptr %358, align 1, !alias.scope !681
  %mask.i.us.i122 = shl nuw i8 1, %offset.i.us.i121
  %_22.i.us.i123 = xor i8 %mask.i.us.i122, -1
  %360 = and i8 %359, %_22.i.us.i123
  store i8 %360, ptr %358, align 1, !alias.scope !688
  br label %bb3.us.i108

bb6.i127:                                         ; preds = %bb3.i.i.us.i112
  call addrspace(1) void @llvm.lifetime.end.p0(i64 1, ptr nonnull %iter.sroa.5.i101)
  br label %.noexc97

.noexc97:                                         ; preds = %bb34.i.i.i, %bb6.i127
  call addrspace(1) void @llvm.experimental.noalias.scope.decl(metadata !693)
  call addrspace(1) void @llvm.lifetime.start.p0(i64 1, ptr nonnull %iter.sroa.5.i67)
  store i8 23, ptr %iter.sroa.5.i67, align 1, !noalias !693
  br label %bb3.us.i74

bb3.us.i74:                                       ; preds = %bb1.i.i.i.us.i90, %.noexc97
  %self.val.i.i.i.i1046.us.i70 = phi i8 [ %self.val.i.i.i.i1045.us.i80209, %bb1.i.i.i.us.i90 ], [ 24, %.noexc97 ]
  %iter.sroa.0.0.us.i71 = phi i8 [ %iter.sroa.0.12834.us.i82211, %bb1.i.i.i.us.i90 ], [ 1, %.noexc97 ]
  %trunc.not.i.us.i72 = icmp eq i8 %iter.sroa.0.0.us.i71, 0
  %_8.0.i.us.i73 = select i1 %trunc.not.i.us.i72, ptr null, ptr %iter.sroa.5.i67
  br i1 %trunc.not.i.us.i72, label %bb3.i.i.us.i78, label %bb3.i.us.i76

bb3.i.us.i76:                                     ; preds = %bb3.us.i74
  %self.val.i.i.i.i.us.i75 = load i8, ptr %_8.0.i.us.i73, align 1, !alias.scope !696, !noalias !693
  %361 = icmp ult i8 %self.val.i.i.i.i.us.i75, 24
  br i1 %361, label %bb4.us.i86, label %bb3.i.i.us.i78

bb3.i.i.us.i78:                                   ; preds = %bb3.i.us.i76, %bb3.us.i74
  %362 = icmp ult i8 %self.val.i.i.i.i1046.us.i70, 32
  br i1 %362, label %bb4.us.i86.thread, label %.noexc19

bb4.us.i86.thread:                                ; preds = %bb3.i.i.us.i78
  %363 = add nuw nsw i8 %self.val.i.i.i.i1046.us.i70, 1
  br label %bb1.i.i.i.us.i90

bb4.us.i86:                                       ; preds = %bb3.i.us.i76
  %364 = add nuw i8 %self.val.i.i.i.i.us.i75, 1
  store i8 %364, ptr %_8.0.i.us.i73, align 1, !alias.scope !705, !noalias !693
  br label %bb1.i.i.i.us.i90

bb1.i.i.i.us.i90:                                 ; preds = %bb4.us.i86, %bb4.us.i86.thread
  %iter.sroa.0.12834.us.i82211 = phi i8 [ 0, %bb4.us.i86.thread ], [ 1, %bb4.us.i86 ]
  %.sroa.3.0.i1335.us.i81210 = phi i8 [ %self.val.i.i.i.i1046.us.i70, %bb4.us.i86.thread ], [ %self.val.i.i.i.i.us.i75, %bb4.us.i86 ]
  %self.val.i.i.i.i1045.us.i80209 = phi i8 [ %363, %bb4.us.i86.thread ], [ %self.val.i.i.i.i1046.us.i70, %bb4.us.i86 ]
  %_4.i.i.i.us.i84212.in = lshr i8 %.sroa.3.0.i1335.us.i81210, 3
  %_4.i.i.i.us.i84212 = zext i8 %_4.i.i.i.us.i84212.in to i16
  %offset.i.us.i87 = and i8 %.sroa.3.0.i1335.us.i81210, 7
  %365 = getelementptr inbounds [8 x [128 x i8]], ptr %engine, i16 0, i16 %_4.i.i.i.us.i84212, i16 9
  %366 = load i8, ptr %365, align 1, !alias.scope !708
  %mask.i.us.i88 = shl nuw i8 1, %offset.i.us.i87
  %_22.i.us.i89 = xor i8 %mask.i.us.i88, -1
  %367 = and i8 %366, %_22.i.us.i89
  store i8 %367, ptr %365, align 1, !alias.scope !715
  br label %bb3.us.i74

.noexc19:                                         ; preds = %bb3.i.i.us.i78
  call addrspace(1) void @llvm.lifetime.end.p0(i64 1, ptr nonnull %iter.sroa.5.i67)
  %368 = load i8, ptr %iter.sroa.4.0.ptr.2.i.i, align 1, !alias.scope !720
  %369 = or i8 %368, 64
  store i8 %369, ptr %iter.sroa.4.0.ptr.2.i.i, align 1, !alias.scope !729
  %370 = load i8, ptr %101, align 1, !alias.scope !734
  %371 = or i8 %370, 64
  store i8 %371, ptr %101, align 1, !alias.scope !738
  %372 = load i8, ptr %102, align 1, !alias.scope !739
  %373 = or i8 %372, 64
  store i8 %373, ptr %102, align 1, !alias.scope !743
  %374 = load i8, ptr %103, align 1, !alias.scope !744
  %375 = or i8 %374, 64
  store i8 %375, ptr %103, align 1, !alias.scope !748
  %376 = load i8, ptr %104, align 1, !alias.scope !749
  %377 = or i8 %376, 64
  store i8 %377, ptr %104, align 1, !alias.scope !753
  %378 = load i8, ptr %105, align 1, !alias.scope !754
  %379 = or i8 %378, 64
  store i8 %379, ptr %105, align 1, !alias.scope !758
  %380 = load i8, ptr %106, align 1, !alias.scope !759
  %381 = or i8 %380, 64
  store i8 %381, ptr %106, align 1, !alias.scope !763
  %382 = load i8, ptr %107, align 1, !alias.scope !764
  %383 = or i8 %382, 64
  store i8 %383, ptr %107, align 1, !alias.scope !768
  %384 = load i8, ptr %108, align 1, !alias.scope !769
  %385 = or i8 %384, 64
  store i8 %385, ptr %108, align 1, !alias.scope !773
  %386 = load i8, ptr %109, align 1, !alias.scope !774
  %387 = or i8 %386, 64
  store i8 %387, ptr %109, align 1, !alias.scope !778
  %388 = load i8, ptr %iter.sroa.4.0.ptr.4.i.i, align 1, !alias.scope !779
  %389 = or i8 %388, 1
  store i8 %389, ptr %iter.sroa.4.0.ptr.4.i.i, align 1, !alias.scope !788
  %390 = load i8, ptr %110, align 1, !alias.scope !793
  %391 = or i8 %390, 1
  store i8 %391, ptr %110, align 1, !alias.scope !797
  %392 = load i8, ptr %111, align 1, !alias.scope !798
  %393 = or i8 %392, 1
  store i8 %393, ptr %111, align 1, !alias.scope !802
  %394 = load i8, ptr %112, align 1, !alias.scope !803
  %395 = or i8 %394, 1
  store i8 %395, ptr %112, align 1, !alias.scope !807
  %396 = load i8, ptr %113, align 1, !alias.scope !808
  %397 = or i8 %396, 1
  store i8 %397, ptr %113, align 1, !alias.scope !812
  %398 = load i8, ptr %114, align 1, !alias.scope !813
  %399 = or i8 %398, 1
  store i8 %399, ptr %114, align 1, !alias.scope !817
  %400 = load i8, ptr %115, align 1, !alias.scope !818
  %401 = or i8 %400, 1
  store i8 %401, ptr %115, align 1, !alias.scope !822
  %402 = load i8, ptr %116, align 1, !alias.scope !823
  %403 = or i8 %402, 1
  store i8 %403, ptr %116, align 1, !alias.scope !827
  %404 = load i8, ptr %117, align 1, !alias.scope !828
  %405 = or i8 %404, 1
  store i8 %405, ptr %117, align 1, !alias.scope !832
  %406 = load i8, ptr %118, align 1, !alias.scope !833
  %407 = or i8 %406, 1
  store i8 %407, ptr %118, align 1, !alias.scope !837
  call addrspace(1) void @llvm.experimental.noalias.scope.decl(metadata !838)
  call addrspace(1) void @llvm.lifetime.start.p0(i64 1, ptr nonnull %iter.sroa.5.i324)
  store i8 23, ptr %iter.sroa.5.i324, align 1, !noalias !838
  br label %bb3.us.i329

bb3.us.i329:                                      ; preds = %bb1.i.i.i.us.i339, %.noexc19
  %self.val.i.i.i.i1046.us.i325 = phi i8 [ %self.val.i.i.i.i1045.us.i, %bb1.i.i.i.us.i339 ], [ 24, %.noexc19 ]
  %iter.sroa.0.0.us.i326 = phi i8 [ %iter.sroa.0.12834.us.i, %bb1.i.i.i.us.i339 ], [ 1, %.noexc19 ]
  %trunc.not.i.us.i327 = icmp eq i8 %iter.sroa.0.0.us.i326, 0
  %_8.0.i.us.i328 = select i1 %trunc.not.i.us.i327, ptr null, ptr %iter.sroa.5.i324
  br i1 %trunc.not.i.us.i327, label %bb3.i.i.us.i332, label %bb3.i.us.i331

bb3.i.us.i331:                                    ; preds = %bb3.us.i329
  %self.val.i.i.i.i.us.i330 = load i8, ptr %_8.0.i.us.i328, align 1, !alias.scope !841, !noalias !838
  %408 = icmp ult i8 %self.val.i.i.i.i.us.i330, 24
  br i1 %408, label %"_ZN4core6option15Option$LT$T$GT$7or_else17h27f17428c2c797feE.exit.thread.us.i", label %bb3.i.i.us.i332

"_ZN4core6option15Option$LT$T$GT$7or_else17h27f17428c2c797feE.exit.thread.us.i": ; preds = %bb3.i.us.i331
  %409 = add nuw i8 %self.val.i.i.i.i.us.i330, 1
  store i8 %409, ptr %_8.0.i.us.i328, align 1, !alias.scope !850, !noalias !838
  br label %bb1.i.i.i.us.i339

bb3.i.i.us.i332:                                  ; preds = %bb3.i.us.i331, %bb3.us.i329
  %410 = icmp ult i8 %self.val.i.i.i.i1046.us.i325, 32
  br i1 %410, label %"_ZN4core6option15Option$LT$T$GT$7or_else17h27f17428c2c797feE.exit.us.i", label %.noexc20

"_ZN4core6option15Option$LT$T$GT$7or_else17h27f17428c2c797feE.exit.us.i": ; preds = %bb3.i.i.us.i332
  %411 = add nuw i8 %self.val.i.i.i.i1046.us.i325, 1
  br label %bb1.i.i.i.us.i339

bb1.i.i.i.us.i339:                                ; preds = %"_ZN4core6option15Option$LT$T$GT$7or_else17h27f17428c2c797feE.exit.thread.us.i", %"_ZN4core6option15Option$LT$T$GT$7or_else17h27f17428c2c797feE.exit.us.i"
  %self.val.i.i.i.i1045.us.i = phi i8 [ %self.val.i.i.i.i1046.us.i325, %"_ZN4core6option15Option$LT$T$GT$7or_else17h27f17428c2c797feE.exit.thread.us.i" ], [ %411, %"_ZN4core6option15Option$LT$T$GT$7or_else17h27f17428c2c797feE.exit.us.i" ]
  %.sroa.3.0.i1335.us.i = phi i8 [ %self.val.i.i.i.i.us.i330, %"_ZN4core6option15Option$LT$T$GT$7or_else17h27f17428c2c797feE.exit.thread.us.i" ], [ %self.val.i.i.i.i1046.us.i325, %"_ZN4core6option15Option$LT$T$GT$7or_else17h27f17428c2c797feE.exit.us.i" ]
  %iter.sroa.0.12834.us.i = phi i8 [ 1, %"_ZN4core6option15Option$LT$T$GT$7or_else17h27f17428c2c797feE.exit.thread.us.i" ], [ 0, %"_ZN4core6option15Option$LT$T$GT$7or_else17h27f17428c2c797feE.exit.us.i" ]
  %stripe1.i.us.i333 = lshr i8 %.sroa.3.0.i1335.us.i, 3
  %_4.i.i.i.us.i334 = zext i8 %stripe1.i.us.i333 to i16
  %offset.i.us.i337 = and i8 %.sroa.3.0.i1335.us.i, 7
  %412 = getelementptr inbounds [8 x [128 x i8]], ptr %engine, i16 0, i16 %_4.i.i.i.us.i334, i16 119
  %413 = load i8, ptr %412, align 1, !alias.scope !853
  %mask.i.us.i338 = shl nuw i8 1, %offset.i.us.i337
  %_22.i.us.i = xor i8 %mask.i.us.i338, -1
  %414 = and i8 %413, %_22.i.us.i
  store i8 %414, ptr %412, align 1, !alias.scope !860
  br label %bb3.us.i329

.noexc20:                                         ; preds = %bb3.i.i.us.i332
  call addrspace(1) void @llvm.lifetime.end.p0(i64 1, ptr nonnull %iter.sroa.5.i324)
  %415 = load i8, ptr %119, align 1, !alias.scope !865
  %416 = or i8 %415, 64
  store i8 %416, ptr %119, align 1, !alias.scope !874
  %417 = load i8, ptr %120, align 1, !alias.scope !865
  %418 = or i8 %417, 64
  store i8 %418, ptr %120, align 1, !alias.scope !874
  %419 = load i8, ptr %121, align 1, !alias.scope !865
  %420 = or i8 %419, 64
  store i8 %420, ptr %121, align 1, !alias.scope !874
  %421 = load i8, ptr %122, align 1, !alias.scope !865
  %422 = or i8 %421, 64
  store i8 %422, ptr %122, align 1, !alias.scope !874
  %423 = load i8, ptr %123, align 1, !alias.scope !865
  %424 = or i8 %423, 64
  store i8 %424, ptr %123, align 1, !alias.scope !874
  %425 = load i8, ptr %124, align 1, !alias.scope !865
  %426 = or i8 %425, 64
  store i8 %426, ptr %124, align 1, !alias.scope !874
  %427 = load i8, ptr %125, align 1, !alias.scope !865
  %428 = or i8 %427, 64
  store i8 %428, ptr %125, align 1, !alias.scope !874
  %429 = load i8, ptr %126, align 1, !alias.scope !865
  %430 = or i8 %429, 64
  store i8 %430, ptr %126, align 1, !alias.scope !874
  %431 = load i8, ptr %127, align 1, !alias.scope !865
  %432 = or i8 %431, 64
  store i8 %432, ptr %127, align 1, !alias.scope !874
  %433 = load i8, ptr %128, align 1, !alias.scope !879
  %434 = or i8 %433, 1
  store i8 %434, ptr %128, align 1, !alias.scope !888
  %435 = load i8, ptr %129, align 1, !alias.scope !879
  %436 = or i8 %435, 1
  store i8 %436, ptr %129, align 1, !alias.scope !888
  %437 = load i8, ptr %130, align 1, !alias.scope !879
  %438 = or i8 %437, 1
  store i8 %438, ptr %130, align 1, !alias.scope !888
  %439 = load i8, ptr %131, align 1, !alias.scope !879
  %440 = or i8 %439, 1
  store i8 %440, ptr %131, align 1, !alias.scope !888
  %441 = load i8, ptr %132, align 1, !alias.scope !879
  %442 = or i8 %441, 1
  store i8 %442, ptr %132, align 1, !alias.scope !888
  %443 = load i8, ptr %133, align 1, !alias.scope !879
  %444 = or i8 %443, 1
  store i8 %444, ptr %133, align 1, !alias.scope !888
  %445 = load i8, ptr %134, align 1, !alias.scope !879
  %446 = or i8 %445, 1
  store i8 %446, ptr %134, align 1, !alias.scope !888
  %447 = load i8, ptr %135, align 1, !alias.scope !879
  %448 = or i8 %447, 1
  store i8 %448, ptr %135, align 1, !alias.scope !888
  %449 = load i8, ptr %136, align 1, !alias.scope !879
  %450 = or i8 %449, 1
  store i8 %450, ptr %136, align 1, !alias.scope !888
  br i1 %portals_open.i.i, label %.noexc64, label %.noexc21

.noexc21:                                         ; preds = %.noexc20
; call worduino_engine::draw::draw_vertical_door
  call fastcc addrspace(1) void @_ZN15worduino_engine4draw18draw_vertical_door17h21ffec8321d4a0feE(ptr noalias noundef nonnull align 1 dereferenceable(1024) %engine, i8 8, i8 23, i8 31, i1 noundef zeroext %door_state.i.i.i)
; call worduino_engine::draw::draw_vertical_door
  call fastcc addrspace(1) void @_ZN15worduino_engine4draw18draw_vertical_door17h21ffec8321d4a0feE(ptr noalias noundef nonnull align 1 dereferenceable(1024) %engine, i8 119, i8 23, i8 31, i1 noundef zeroext %door_state.i.i.i)
  br label %"_ZN15worduino_engine6engine15Engine$LT$P$GT$10draw_level17h87d0f8e52c19fc9cE.exit.i.i"

.noexc64:                                         ; preds = %.noexc20
  %451 = and i8 %387, 127
  store i8 %451, ptr %109, align 1, !alias.scope !893
  store i8 73, ptr %137, align 1, !alias.scope !902
  %452 = load i8, ptr %138, align 1, !alias.scope !904
  %453 = or i8 %452, 16
  store i8 %453, ptr %138, align 1, !alias.scope !913
  %454 = load i8, ptr %139, align 1, !alias.scope !918
  %455 = or i8 %454, 16
  store i8 %455, ptr %139, align 1, !alias.scope !922
  %456 = load i8, ptr %140, align 1, !alias.scope !923
  %457 = load i8, ptr %141, align 1, !alias.scope !927
  %458 = or i8 %457, 16
  store i8 %458, ptr %141, align 1, !alias.scope !931
  %459 = load i8, ptr %142, align 1, !alias.scope !932
  %460 = or i8 %459, 16
  store i8 %460, ptr %142, align 1, !alias.scope !936
  call addrspace(1) void @llvm.experimental.noalias.scope.decl(metadata !937)
  call addrspace(1) void @llvm.lifetime.start.p0(i64 1, ptr nonnull %iter.sroa.5.i)
  store i8 27, ptr %iter.sroa.5.i, align 1, !noalias !937
  br label %bb3.us.i

bb3.us.i:                                         ; preds = %bb1.i.i.i.us.i, %.noexc64
  %self.val.i.i.i.i1046.us.i = phi i8 [ %self.val.i.i.i.i1045.us.i219, %bb1.i.i.i.us.i ], [ 27, %.noexc64 ]
  %iter.sroa.0.0.us.i = phi i8 [ %iter.sroa.0.12834.us.i221, %bb1.i.i.i.us.i ], [ 1, %.noexc64 ]
  %trunc.not.i.us.i = icmp eq i8 %iter.sroa.0.0.us.i, 0
  %_8.0.i.us.i = select i1 %trunc.not.i.us.i, ptr null, ptr %iter.sroa.5.i
  br i1 %trunc.not.i.us.i, label %bb3.i.i.us.i, label %bb3.i.us.i

bb3.i.us.i:                                       ; preds = %bb3.us.i
  %self.val.i.i.i.i.us.i = load i8, ptr %_8.0.i.us.i, align 1, !alias.scope !940, !noalias !937
  %461 = icmp ult i8 %self.val.i.i.i.i.us.i, 29
  br i1 %461, label %bb4.us.i, label %bb3.i.i.us.i

bb3.i.i.us.i:                                     ; preds = %bb3.i.us.i, %bb3.us.i
  %462 = icmp ult i8 %self.val.i.i.i.i1046.us.i, 30
  br i1 %462, label %bb4.us.i.thread, label %.noexc24

bb4.us.i.thread:                                  ; preds = %bb3.i.i.us.i
  %463 = add nuw nsw i8 %self.val.i.i.i.i1046.us.i, 1
  br label %bb1.i.i.i.us.i

bb4.us.i:                                         ; preds = %bb3.i.us.i
  %464 = add nuw i8 %self.val.i.i.i.i.us.i, 1
  store i8 %464, ptr %_8.0.i.us.i, align 1, !alias.scope !949, !noalias !937
  br label %bb1.i.i.i.us.i

bb1.i.i.i.us.i:                                   ; preds = %bb4.us.i, %bb4.us.i.thread
  %iter.sroa.0.12834.us.i221 = phi i8 [ 0, %bb4.us.i.thread ], [ 1, %bb4.us.i ]
  %.sroa.3.0.i1335.us.i220 = phi i8 [ %self.val.i.i.i.i1046.us.i, %bb4.us.i.thread ], [ %self.val.i.i.i.i.us.i, %bb4.us.i ]
  %self.val.i.i.i.i1045.us.i219 = phi i8 [ %463, %bb4.us.i.thread ], [ %self.val.i.i.i.i1046.us.i, %bb4.us.i ]
  %_4.i.i.i.us.i222.in = lshr i8 %.sroa.3.0.i1335.us.i220, 3
  %_4.i.i.i.us.i222 = zext i8 %_4.i.i.i.us.i222.in to i16
  %offset.i.us.i = and i8 %.sroa.3.0.i1335.us.i220, 7
  %465 = getelementptr inbounds [8 x [128 x i8]], ptr %engine, i16 0, i16 %_4.i.i.i.us.i222, i16 2
  %466 = load i8, ptr %465, align 1, !alias.scope !952
  %mask.i.us.i = shl nuw i8 1, %offset.i.us.i
  %467 = or i8 %466, %mask.i.us.i
  store i8 %467, ptr %465, align 1, !alias.scope !959
  br label %bb3.us.i

.noexc24:                                         ; preds = %bb3.i.i.us.i
  call addrspace(1) void @llvm.lifetime.end.p0(i64 1, ptr nonnull %iter.sroa.5.i)
  %468 = load i8, ptr %139, align 1, !alias.scope !964
  %469 = and i8 %468, -17
  store i8 %469, ptr %139, align 1, !alias.scope !973
  %470 = and i8 %456, -17
  store i8 %470, ptr %140, align 1, !alias.scope !978
  %471 = and i8 %416, 127
  store i8 %471, ptr %119, align 1, !alias.scope !980
  store i8 73, ptr %143, align 1, !alias.scope !989
  %472 = load i8, ptr %144, align 1, !alias.scope !991
  %473 = or i8 %472, 16
  store i8 %473, ptr %144, align 1, !alias.scope !1000
  %474 = load i8, ptr %145, align 1, !alias.scope !991
  %475 = or i8 %474, 16
  store i8 %475, ptr %145, align 1, !alias.scope !1000
  %476 = load i8, ptr %146, align 1, !alias.scope !991
  %477 = or i8 %476, 16
  store i8 %477, ptr %146, align 1, !alias.scope !1000
  %478 = load i8, ptr %147, align 1, !alias.scope !991
  %479 = or i8 %478, 16
  store i8 %479, ptr %147, align 1, !alias.scope !1000
  %480 = load i8, ptr %148, align 1, !alias.scope !991
  %481 = or i8 %480, 16
  store i8 %481, ptr %148, align 1, !alias.scope !1000
; call worduino_engine::draw::draw_vertical_line
  call fastcc addrspace(1) void @_ZN15worduino_engine4draw18draw_vertical_line17h6b256f8c00e14efbE(ptr noalias noundef nonnull align 1 dereferenceable(1024) %engine, i8 125, i8 27, i8 29, i1 noundef zeroext true)
  %482 = load i8, ptr %146, align 1, !alias.scope !1005
  %483 = and i8 %482, -17
  store i8 %483, ptr %146, align 1, !alias.scope !1014
  %484 = load i8, ptr %147, align 1, !alias.scope !1019
  %485 = and i8 %484, -17
  store i8 %485, ptr %147, align 1, !alias.scope !1023
  br label %"_ZN15worduino_engine6engine15Engine$LT$P$GT$10draw_level17h87d0f8e52c19fc9cE.exit.i.i"

"_ZN15worduino_engine6engine15Engine$LT$P$GT$10draw_level17h87d0f8e52c19fc9cE.exit.i.i": ; preds = %.noexc21, %.noexc24
  %486 = load i8, ptr %player.i.i, align 1, !range !386, !alias.scope !1024, !noalias !1027, !noundef !368
  %trunc.i.i.i = trunc i8 %486 to i3
  switch i3 %trunc.i.i.i, label %bb2.i.i.i [
    i3 0, label %bb3.i.i.i
    i3 1, label %bb7.i.i.i
    i3 2, label %bb11.i.i.i
    i3 3, label %bb21.i.i.i
    i3 -4, label %bb15.i.i.i
    i3 -3, label %bb1.i.i.i2
  ]

bb2.i.i.i:                                        ; preds = %"_ZN15worduino_engine6engine15Engine$LT$P$GT$10draw_level17h87d0f8e52c19fc9cE.exit.i.i"
  unreachable

bb3.i.i.i:                                        ; preds = %"_ZN15worduino_engine6engine15Engine$LT$P$GT$10draw_level17h87d0f8e52c19fc9cE.exit.i.i"
  %frame3.val.i.i.i = load i8, ptr %96, align 1, !alias.scope !1024, !noalias !1027
  %_4.not.i.i.i.i.i = icmp ult i8 %frame3.val.i.i.i, 2
  br i1 %_4.not.i.i.i.i.i, label %"_ZN11avr_progmem7wrapper37ProgMem$LT$$u5b$T$u3b$$u20$N$u5d$$GT$2at17h31a322918654645aE.exit.i.i.i", label %panic.i97.i.i.invoke

"_ZN11avr_progmem7wrapper37ProgMem$LT$$u5b$T$u3b$$u20$N$u5d$$GT$2at17h31a322918654645aE.exit.i.i.i": ; preds = %bb3.i.i.i
  %487 = zext i8 %frame3.val.i.i.i to i16
  %488 = getelementptr inbounds [8 x i8], ptr @_ZN15worduino_engine6assets11PLAYER_IDLE6FRAMES5VALUE17he7491c159b41f446E, i16 %487
  %_17.0.i.i.i = load i8, ptr %e.i.i.i, align 1, !alias.scope !1024, !noalias !1027
  %_17.1.i.i.i = load i8, ptr %149, align 1, !alias.scope !1024, !noalias !1027
  br label %bb1.i.i.i2.invoke

bb7.i.i.i:                                        ; preds = %"_ZN15worduino_engine6engine15Engine$LT$P$GT$10draw_level17h87d0f8e52c19fc9cE.exit.i.i"
  %frame2.val.i.i.i = load i8, ptr %96, align 1, !alias.scope !1024, !noalias !1027
  %_4.not.i.i2.i.i.i = icmp ult i8 %frame2.val.i.i.i, 3
  br i1 %_4.not.i.i2.i.i.i, label %"_ZN11avr_progmem7wrapper37ProgMem$LT$$u5b$T$u3b$$u20$N$u5d$$GT$2at17h3b341e714208c2d3E.exit.i.i.i", label %panic.i97.i.i.invoke

"_ZN11avr_progmem7wrapper37ProgMem$LT$$u5b$T$u3b$$u20$N$u5d$$GT$2at17h3b341e714208c2d3E.exit.i.i.i": ; preds = %bb7.i.i.i
  %489 = zext i8 %frame2.val.i.i.i to i16
  %490 = getelementptr inbounds [8 x i8], ptr @_ZN15worduino_engine6assets11PLAYER_WALK6FRAMES5VALUE17h61cfa09f37294855E, i16 %489
  %_28.0.i.i.i = load i8, ptr %e.i.i.i, align 1, !alias.scope !1024, !noalias !1027
  %_28.1.i.i.i = load i8, ptr %149, align 1, !alias.scope !1024, !noalias !1027
  br label %bb1.i.i.i2.invoke

bb11.i.i.i:                                       ; preds = %"_ZN15worduino_engine6engine15Engine$LT$P$GT$10draw_level17h87d0f8e52c19fc9cE.exit.i.i"
  %frame1.val.i.i.i = load i8, ptr %96, align 1, !alias.scope !1024, !noalias !1027
  %_4.not.i.i4.i.i.i = icmp ult i8 %frame1.val.i.i.i, 4
  br i1 %_4.not.i.i4.i.i.i, label %"_ZN11avr_progmem7wrapper37ProgMem$LT$$u5b$T$u3b$$u20$N$u5d$$GT$2at17hfde64108e8f1c587E.exit.i.i.i", label %panic.i97.i.i.invoke

"_ZN11avr_progmem7wrapper37ProgMem$LT$$u5b$T$u3b$$u20$N$u5d$$GT$2at17hfde64108e8f1c587E.exit.i.i.i": ; preds = %bb11.i.i.i
  %491 = zext i8 %frame1.val.i.i.i to i16
  %492 = getelementptr inbounds [8 x i8], ptr @_ZN15worduino_engine6assets10PLAYER_DIE6FRAMES5VALUE17ha200bb11413b94bfE, i16 %491
  %_39.0.i.i.i = load i8, ptr %e.i.i.i, align 1, !alias.scope !1024, !noalias !1027
  %_39.1.i.i.i = load i8, ptr %149, align 1, !alias.scope !1024, !noalias !1027
  br label %bb1.i.i.i2.invoke

bb21.i.i.i:                                       ; preds = %bb1.i.i.i2.invoke, %"_ZN15worduino_engine6engine15Engine$LT$P$GT$10draw_level17h87d0f8e52c19fc9cE.exit.i.i"
  %493 = load i8, ptr %151, align 1, !range !366, !alias.scope !1024, !noalias !1027, !noundef !368
  %.not.i.i.i = icmp eq i8 %493, 4
  br i1 %.not.i.i.i, label %bb23.i.i, label %bb22.i.i.i

bb15.i.i.i:                                       ; preds = %"_ZN15worduino_engine6engine15Engine$LT$P$GT$10draw_level17h87d0f8e52c19fc9cE.exit.i.i"
  %frame.val.i.i.i = load i8, ptr %frame.i.i.i, align 1, !alias.scope !1024, !noalias !1027
  %_4.not.i.i6.i.i.i = icmp ult i8 %frame.val.i.i.i, 3
  br i1 %_4.not.i.i6.i.i.i, label %.noexc32, label %panic.i97.i.i.invoke

.noexc32:                                         ; preds = %bb15.i.i.i
  %_53.i.i.i = load i8, ptr %96, align 1, !alias.scope !1024, !noalias !1027
  %494 = load i8, ptr %e.i.i.i, align 1, !alias.scope !1029
  %495 = load i8, ptr %149, align 1, !alias.scope !1029
  %496 = add i8 %494, %_53.i.i.i
  %497 = zext i8 %frame.val.i.i.i to i16
  %498 = getelementptr inbounds [8 x i8], ptr @_ZN15worduino_engine6assets11PLAYER_WALK6FRAMES5VALUE17h61cfa09f37294855E, i16 %497
  br label %bb1.i.i.i2.invoke

bb1.i.i.i2:                                       ; preds = %"_ZN15worduino_engine6engine15Engine$LT$P$GT$10draw_level17h87d0f8e52c19fc9cE.exit.i.i"
  %_60.0.i.i.i = load i8, ptr %e.i.i.i, align 1, !alias.scope !1024, !noalias !1027
  %_60.1.i.i.i = load i8, ptr %149, align 1, !alias.scope !1024, !noalias !1027
  br label %bb1.i.i.i2.invoke

bb1.i.i.i2.invoke:                                ; preds = %"_ZN11avr_progmem7wrapper37ProgMem$LT$$u5b$T$u3b$$u20$N$u5d$$GT$2at17h31a322918654645aE.exit.i.i.i", %"_ZN11avr_progmem7wrapper37ProgMem$LT$$u5b$T$u3b$$u20$N$u5d$$GT$2at17h3b341e714208c2d3E.exit.i.i.i", %"_ZN11avr_progmem7wrapper37ProgMem$LT$$u5b$T$u3b$$u20$N$u5d$$GT$2at17hfde64108e8f1c587E.exit.i.i.i", %.noexc32, %bb1.i.i.i2
  %499 = phi ptr [ @_ZN15worduino_engine6assets12PLAYER_SHOOT5VALUE17hb1f16604782cc96bE, %bb1.i.i.i2 ], [ %498, %.noexc32 ], [ %492, %"_ZN11avr_progmem7wrapper37ProgMem$LT$$u5b$T$u3b$$u20$N$u5d$$GT$2at17hfde64108e8f1c587E.exit.i.i.i" ], [ %490, %"_ZN11avr_progmem7wrapper37ProgMem$LT$$u5b$T$u3b$$u20$N$u5d$$GT$2at17h3b341e714208c2d3E.exit.i.i.i" ], [ %488, %"_ZN11avr_progmem7wrapper37ProgMem$LT$$u5b$T$u3b$$u20$N$u5d$$GT$2at17h31a322918654645aE.exit.i.i.i" ]
  %500 = phi i8 [ %_60.0.i.i.i, %bb1.i.i.i2 ], [ %496, %.noexc32 ], [ %_39.0.i.i.i, %"_ZN11avr_progmem7wrapper37ProgMem$LT$$u5b$T$u3b$$u20$N$u5d$$GT$2at17hfde64108e8f1c587E.exit.i.i.i" ], [ %_28.0.i.i.i, %"_ZN11avr_progmem7wrapper37ProgMem$LT$$u5b$T$u3b$$u20$N$u5d$$GT$2at17h3b341e714208c2d3E.exit.i.i.i" ], [ %_17.0.i.i.i, %"_ZN11avr_progmem7wrapper37ProgMem$LT$$u5b$T$u3b$$u20$N$u5d$$GT$2at17h31a322918654645aE.exit.i.i.i" ]
  %501 = phi i8 [ %_60.1.i.i.i, %bb1.i.i.i2 ], [ %495, %.noexc32 ], [ %_39.1.i.i.i, %"_ZN11avr_progmem7wrapper37ProgMem$LT$$u5b$T$u3b$$u20$N$u5d$$GT$2at17hfde64108e8f1c587E.exit.i.i.i" ], [ %_28.1.i.i.i, %"_ZN11avr_progmem7wrapper37ProgMem$LT$$u5b$T$u3b$$u20$N$u5d$$GT$2at17h3b341e714208c2d3E.exit.i.i.i" ], [ %_17.1.i.i.i, %"_ZN11avr_progmem7wrapper37ProgMem$LT$$u5b$T$u3b$$u20$N$u5d$$GT$2at17h31a322918654645aE.exit.i.i.i" ]
  %_18.i.i.i = load i8, ptr %150, align 1, !range !1032, !alias.scope !1024, !noalias !1027
; invoke worduino_engine::draw::draw_sprite
  invoke fastcc addrspace(1) void @_ZN15worduino_engine4draw11draw_sprite17hc7657142962e61a4E(ptr noalias noundef nonnull align 1 dereferenceable(1024) %engine, ptr nonnull %499, i16 8, i8 %500, i8 %501, i8 noundef %_18.i.i.i)
          to label %bb21.i.i.i unwind label %cleanup.loopexit.split-lp.loopexit.split-lp.loopexit.split-lp.loopexit.split-lp.loopexit.split-lp.loopexit

bb22.i.i.i:                                       ; preds = %bb21.i.i.i
  %_69.0.i.i.i = load i8, ptr %bullet.i.i.i, align 1, !alias.scope !1024, !noalias !1027
  %_69.1.i.i.i = load i8, ptr %152, align 1, !alias.scope !1024, !noalias !1027
; invoke worduino_engine::draw::draw_sprite
  invoke fastcc addrspace(1) void @_ZN15worduino_engine4draw11draw_sprite17hc7657142962e61a4E(ptr noalias noundef nonnull align 1 dereferenceable(1024) %engine, ptr nonnull @_ZN15worduino_engine6assets13PLAYER_BULLET5VALUE17he293f20255c3c9cbE, i16 8, i8 %_69.0.i.i.i, i8 %_69.1.i.i.i, i8 noundef %493)
          to label %bb23.i.i unwind label %cleanup.loopexit.split-lp.loopexit.split-lp.loopexit.split-lp.loopexit.split-lp.loopexit.split-lp.loopexit

.noexc36:                                         ; preds = %bb29.i.i
  %502 = load volatile i8, ptr inttoptr (i16 47 to ptr), align 1
  %_2.i.i.i.i.i = icmp sgt i8 %502, -1
  %503 = load volatile i8, ptr inttoptr (i16 44 to ptr), align 4
  %504 = load volatile i8, ptr inttoptr (i16 35 to ptr), align 1
  %505 = zext i1 %_2.i.i.i.i.i to i8
  %_7.i.i.i.i.i = lshr i8 %502, 4
